(lp0
(dp1
S'flow'
p2
F0.1
sS'result'
p3
(lp4
(I0
I47
I95
I1417
F14.91578947368421
I1
tp5
a(I1
I52
I90
I1374
F15.266666666666667
I3
tp6
a(I2
I44
I77
I1149
F14.922077922077921
I1
tp7
a(I3
I45
I92
I1338
F14.543478260869565
I2
tp8
a(I4
I54
I111
I1650
F14.864864864864865
I0
tp9
a(I5
I41
I83
I1231
F14.831325301204819
I1
tp10
a(I6
I52
I101
I1476
F14.613861386138614
I1
tp11
a(I7
I62
I101
I1547
F15.316831683168317
I3
tp12
a(I8
I46
I99
I1447
F14.616161616161616
I3
tp13
a(I9
I52
I93
I1404
F15.096774193548388
I3
tp14
asa(dp15
g2
F0.2
sg3
(lp16
(I0
I114
I203
I3038
F14.96551724137931
I2
tp17
a(I1
I91
I195
I2920
F14.974358974358974
I2
tp18
a(I2
I109
I196
I2928
F14.938775510204081
I1
tp19
a(I3
I115
I187
I2926
F15.647058823529411
I4
tp20
a(I4
I107
I189
I2975
F15.74074074074074
I0
tp21
a(I5
I117
I220
I3310
F15.045454545454545
I0
tp22
a(I6
I125
I214
I3363
F15.714953271028037
I4
tp23
a(I7
I120
I223
I3353
F15.035874439461884
I2
tp24
a(I8
I92
I197
I3023
F15.345177664974619
I3
tp25
a(I9
I126
I203
I3097
F15.25615763546798
I4
tp26
asa(dp27
g2
F0.4
sg3
(lp28
(I0
I256
I400
I6311
F15.7775
I4
tp29
a(I1
I289
I404
I6652
F16.465346534653467
I5
tp30
a(I2
I219
I380
I6137
F16.15
I2
tp31
a(I3
I243
I396
I6261
F15.81060606060606
I7
tp32
a(I4
I235
I396
I6371
F16.088383838383837
I3
tp33
a(I5
I251
I395
I6200
F15.69620253164557
I5
tp34
a(I6
I278
I395
I6401
F16.20506329113924
I1
tp35
a(I7
I261
I411
I6763
F16.45498783454988
I1
tp36
a(I8
I216
I351
I5582
F15.903133903133902
I1
tp37
a(I9
I215
I362
I5704
F15.756906077348066
I6
tp38
asa(dp39
g2
F0.6000000000000001
sg3
(lp40
(I0
I467
I580
I10073
F17.367241379310343
I3
tp41
a(I1
I407
I563
I9435
F16.758436944937834
I6
tp42
a(I2
I406
I563
I9627
F17.099467140319717
I5
tp43
a(I3
I486
I582
I10115
F17.379725085910653
I4
tp44
a(I4
I480
I574
I9971
F17.371080139372822
I7
tp45
a(I5
I519
I596
I10426
F17.493288590604028
I3
tp46
a(I6
I458
I588
I10252
F17.435374149659864
I13
tp47
a(I7
I419
I567
I9625
F16.97530864197531
I9
tp48
a(I8
I432
I567
I9673
F17.059964726631392
I3
tp49
a(I9
I478
I578
I10310
F17.837370242214533
I7
tp50
asa(dp51
g2
F0.8
sg3
(lp52
(I0
I645
I699
I12941
F18.513590844062946
I6
tp53
a(I1
I722
I767
I14426
F18.808344198174705
I12
tp54
a(I2
I750
I799
I15201
F19.02503128911139
I7
tp55
a(I3
I822
I821
I15889
F19.353227771010964
I4
tp56
a(I4
I771
I766
I14463
F18.881201044386422
I9
tp57
a(I5
I725
I746
I14227
F19.071045576407506
I10
tp58
a(I6
I727
I757
I14226
F18.792602377807132
I5
tp59
a(I7
I731
I751
I14221
F18.936085219707056
I7
tp60
a(I8
I656
I699
I12812
F18.32904148783977
I6
tp61
a(I9
I836
I811
I15793
F19.473489519112206
I6
tp62
asa(dp63
g2
F1.0
sg3
(lp64
(I0
I1108
I955
I21038
F22.02931937172775
I11
tp65
a(I1
I1077
I953
I19904
F20.885624344176286
I12
tp66
a(I2
I1131
I969
I21597
F22.287925696594428
I10
tp67
a(I3
I1044
I960
I20394
F21.24375
I7
tp68
a(I4
I1100
I954
I21534
F22.572327044025158
I5
tp69
a(I5
I1160
I1003
I22738
F22.66999002991027
I11
tp70
a(I6
I1006
I895
I18488
F20.656983240223465
I8
tp71
a(I7
I1158
I993
I24392
F24.563947633434037
I8
tp72
a(I8
I1052
I934
I19724
F21.117773019271947
I16
tp73
a(I9
I1041
I921
I19331
F20.98914223669924
I6
tp74
asa(dp75
g2
F1.2000000000000002
sg3
(lp76
(I0
I1361
I1133
I31536
F27.834068843777583
I12
tp77
a(I1
I1376
I1155
I34232
F29.63809523809524
I8
tp78
a(I2
I1242
I1104
I35415
F32.078804347826086
I13
tp79
a(I3
I1412
I1166
I32164
F27.58490566037736
I12
tp80
a(I4
I1320
I1112
I30500
F27.428057553956833
I8
tp81
a(I5
I1409
I1161
I32932
F28.36520241171404
I16
tp82
a(I6
I1353
I1153
I42596
F36.94362532523851
I16
tp83
a(I7
I1397
I1167
I37647
F32.25964010282777
I12
tp84
a(I8
I1395
I1138
I33324
F29.282952548330403
I16
tp85
a(I9
I1369
I1166
I39173
F33.596054888507716
I12
tp86
asa(dp87
g2
F1.4000000000000001
sg3
(lp88
(I0
I1399
I1247
I50989
F40.889334402566156
I18
tp89
a(I1
I1178
I1269
I81932
F64.56422379826635
I16
tp90
a(I2
I1237
I1258
I73705
F58.589030206677265
I16
tp91
a(I3
I1092
I1283
I96232
F75.00545596258769
I15
tp92
a(I4
I1215
I1263
I75233
F59.566904196357875
I13
tp93
a(I5
I1378
I1257
I59405
F47.259347653142406
I15
tp94
a(I6
I1098
I1239
I82489
F66.5770782889427
I14
tp95
a(I7
I1061
I1286
I99150
F77.099533437014
I23
tp96
a(I8
I1065
I1273
I97425
F76.53181461115476
I24
tp97
a(I9
I1122
I1281
I86187
F67.28103044496487
I18
tp98
asa(dp99
g2
F1.6
sg3
(lp100
(I0
I903
I1281
I108874
F84.99141295862607
I29
tp101
a(I1
I822
I1314
I121563
F92.51369863013699
I92
tp102
a(I2
I945
I1298
I111245
F85.70493066255779
I20
tp103
a(I3
I697
I1278
I130299
F101.95539906103286
I131
tp104
a(I4
I786
I1307
I121197
F92.7291507268554
I43
tp105
a(I5
I606
I1336
I141640
F106.01796407185628
I56
tp106
a(I6
I919
I1321
I113884
F86.21044663133989
I26
tp107
a(I7
I803
I1316
I117554
F89.32674772036474
I59
tp108
a(I8
I703
I1289
I132146
F102.51823118696664
I75
tp109
a(I9
I1096
I1303
I96353
F73.9470452801228
I22
tp110
asa(dp111
g2
F1.8
sg3
(lp112
(I0
I569
I1304
I139831
F107.23236196319019
I214
tp113
a(I1
I541
I1365
I152651
F111.83223443223443
I261
tp114
a(I2
I650
I1313
I135220
F102.98552932216299
I202
tp115
a(I3
I498
I1291
I150188
F116.33462432223082
I276
tp116
a(I4
I582
I1317
I145789
F110.69779802581625
I234
tp117
a(I5
I519
I1346
I149327
F110.94130757800892
I209
tp118
a(I6
I593
I1316
I139002
F105.62462006079028
I236
tp119
a(I7
I490
I1308
I148666
F113.65902140672783
I300
tp120
a(I8
I583
I1308
I142690
F109.09021406727828
I234
tp121
a(I9
I573
I1291
I141224
F109.39116963594113
I228
tp122
asa(dp123
g2
F2.0
sg3
(lp124
(I0
I403
I1336
I157632
F117.9880239520958
I464
tp125
a(I1
I499
I1352
I147016
F108.7396449704142
I350
tp126
a(I2
I460
I1325
I154651
F116.71773584905661
I524
tp127
a(I3
I423
I1338
I162960
F121.79372197309416
I519
tp128
a(I4
I381
I1321
I159785
F120.95760787282362
I370
tp129
a(I5
I525
I1347
I152304
F113.06904231625835
I380
tp130
a(I6
I438
I1309
I154260
F117.84568372803668
I458
tp131
a(I7
I408
I1302
I157919
F121.28955453149001
I487
tp132
a(I8
I437
I1359
I161242
F118.64753495217072
I385
tp133
a(I9
I453
I1315
I152368
F115.86920152091255
I399
tp134
asa(dp135
g2
F2.2
sg3
(lp136
(I0
I361
I1359
I170965
F125.80206033848418
I648
tp137
a(I1
I433
I1352
I163746
F121.11390532544378
I603
tp138
a(I2
I356
I1338
I171158
F127.92077727952167
I705
tp139
a(I3
I360
I1338
I168037
F125.58819133034379
I573
tp140
a(I4
I374
I1341
I168974
F126.00596569724087
I662
tp141
a(I5
I422
I1352
I164421
F121.61316568047337
I587
tp142
a(I6
I435
I1348
I167537
F124.28560830860535
I556
tp143
a(I7
I440
I1320
I155245
F117.60984848484848
I591
tp144
a(I8
I321
I1359
I168588
F124.05298013245033
I680
tp145
a(I9
I386
I1327
I161788
F121.92012057272042
I666
tp146
asa(dp147
g2
F2.4000000000000004
sg3
(lp148
(I0
I362
I1326
I170316
F128.44343891402715
I803
tp149
a(I1
I351
I1358
I167807
F123.56921944035346
I869
tp150
a(I2
I362
I1312
I163224
F124.40853658536585
I856
tp151
a(I3
I310
I1333
I168766
F126.60615153788447
I914
tp152
a(I4
I307
I1328
I171121
F128.85617469879517
I817
tp153
a(I5
I365
I1326
I166904
F125.87028657616892
I835
tp154
a(I6
I370
I1352
I162011
F119.83062130177515
I741
tp155
a(I7
I353
I1323
I168942
F127.69614512471655
I862
tp156
a(I8
I351
I1330
I170896
F128.49323308270678
I886
tp157
a(I9
I336
I1307
I163140
F124.82019892884468
I859
tp158
asa(dp159
g2
F2.6
sg3
(lp160
(I0
I350
I1328
I169939
F127.96611445783132
I1038
tp161
a(I1
I341
I1344
I166338
F123.76339285714286
I999
tp162
a(I2
I365
I1325
I163876
F123.68
I1052
tp163
a(I3
I320
I1316
I170342
F129.43920972644378
I1095
tp164
a(I4
I327
I1350
I174626
F129.3525925925926
I990
tp165
a(I5
I331
I1333
I171659
F128.77644411102776
I1056
tp166
a(I6
I382
I1331
I169264
F127.17054845980466
I873
tp167
a(I7
I307
I1336
I170442
F127.57634730538922
I1061
tp168
a(I8
I336
I1358
I170854
F125.81296023564065
I1045
tp169
a(I9
I332
I1370
I176041
F128.4970802919708
I1042
tp170
asa(dp171
g2
F2.8000000000000003
sg3
(lp172
(I0
I363
I1355
I165056
F121.81254612546125
I1190
tp173
a(I1
I336
I1360
I174013
F127.95073529411765
I1245
tp174
a(I2
I292
I1322
I170639
F129.07639939485628
I1320
tp175
a(I3
I335
I1353
I173374
F128.14042867701403
I1251
tp176
a(I4
I291
I1339
I173347
F129.46004480955938
I1226
tp177
a(I5
I295
I1338
I168890
F126.22571001494768
I1251
tp178
a(I6
I343
I1339
I171953
F128.41896938013443
I1253
tp179
a(I7
I321
I1325
I166112
F125.36754716981132
I1285
tp180
a(I8
I282
I1315
I170344
F129.53916349809887
I1318
tp181
a(I9
I303
I1373
I172427
F125.58412235979607
I1208
tp182
asa(dp183
g2
F3.0
sg3
(lp184
(I0
I298
I1357
I173615
F127.94030950626382
I1441
tp185
a(I1
I271
I1336
I177253
F132.6744011976048
I1330
tp186
a(I2
I308
I1367
I173727
F127.08632040965618
I1487
tp187
a(I3
I286
I1345
I172394
F128.17397769516728
I1334
tp188
a(I4
I256
I1324
I170689
F128.91918429003022
I1400
tp189
a(I5
I298
I1343
I173517
F129.20104244229339
I1437
tp190
a(I6
I260
I1345
I177318
F131.83494423791822
I1440
tp191
a(I7
I302
I1324
I167793
F126.73187311178248
I1317
tp192
a(I8
I272
I1334
I176526
F132.32833583208395
I1429
tp193
a(I9
I242
I1336
I179787
F134.57110778443115
I1462
tp194
asa.