(lp0
(dp1
S'flow'
p2
F0.1
sS'result'
p3
(lp4
(I0
I5
I100
I1628
F16.28
I2
tp5
a(I1
I12
I102
I1687
F16.53921568627451
I0
tp6
a(I2
I7
I112
I1832
F16.357142857142858
I1
tp7
a(I3
I7
I80
I1296
F16.2
I0
tp8
a(I4
I5
I111
I1836
F16.54054054054054
I2
tp9
a(I5
I10
I85
I1410
F16.58823529411765
I0
tp10
a(I6
I12
I91
I1516
F16.65934065934066
I1
tp11
a(I7
I13
I105
I1750
F16.666666666666668
I1
tp12
a(I8
I6
I92
I1505
F16.358695652173914
I2
tp13
a(I9
I10
I101
I1658
F16.415841584158414
I0
tp14
asa(dp15
g2
F0.2
sg3
(lp16
(I0
I37
I199
I3350
F16.834170854271356
I1
tp17
a(I1
I36
I176
I2953
F16.77840909090909
I0
tp18
a(I2
I33
I189
I3195
F16.904761904761905
I1
tp19
a(I3
I39
I197
I3378
F17.14720812182741
I1
tp20
a(I4
I33
I196
I3301
F16.841836734693878
I1
tp21
a(I5
I30
I187
I3155
F16.871657754010695
I1
tp22
a(I6
I23
I179
I2991
F16.70949720670391
I6
tp23
a(I7
I27
I218
I3634
F16.6697247706422
I0
tp24
a(I8
I31
I198
I3328
F16.80808080808081
I3
tp25
a(I9
I13
I162
I2681
F16.549382716049383
I7
tp26
asa(dp27
g2
F0.4
sg3
(lp28
(I0
I121
I390
I6813
F17.46923076923077
I4
tp29
a(I1
I101
I375
I6573
F17.528
I0
tp30
a(I2
I145
I406
I7104
F17.497536945812808
I1
tp31
a(I3
I119
I393
I6805
F17.31552162849873
I9
tp32
a(I4
I164
I408
I7270
F17.818627450980394
I6
tp33
a(I5
I129
I411
I7137
F17.364963503649633
I4
tp34
a(I6
I138
I401
I6988
F17.42643391521197
I4
tp35
a(I7
I123
I378
I6656
F17.608465608465607
I4
tp36
a(I8
I114
I387
I6814
F17.607235142118864
I7
tp37
a(I9
I115
I376
I6468
F17.20212765957447
I7
tp38
asa(dp39
g2
F0.6000000000000001
sg3
(lp40
(I0
I326
I591
I10947
F18.522842639593907
I4
tp41
a(I1
I248
I580
I10378
F17.893103448275863
I3
tp42
a(I2
I284
I585
I10566
F18.06153846153846
I1
tp43
a(I3
I308
I583
I10682
F18.32246998284734
I4
tp44
a(I4
I336
I623
I11341
F18.203852327447834
I10
tp45
a(I5
I338
I612
I11226
F18.34313725490196
I7
tp46
a(I6
I238
I543
I9693
F17.85082872928177
I8
tp47
a(I7
I308
I595
I10818
F18.181512605042016
I8
tp48
a(I8
I292
I576
I10479
F18.192708333333332
I6
tp49
a(I9
I248
I579
I10389
F17.94300518134715
I6
tp50
asa(dp51
g2
F0.8
sg3
(lp52
(I0
I648
I813
I15732
F19.350553505535057
I10
tp53
a(I1
I497
I770
I14403
F18.705194805194804
I9
tp54
a(I2
I524
I759
I14334
F18.885375494071145
I10
tp55
a(I3
I494
I761
I14378
F18.893561103810775
I13
tp56
a(I4
I569
I777
I14718
F18.942084942084943
I9
tp57
a(I5
I532
I753
I14334
F19.03585657370518
I14
tp58
a(I6
I572
I795
I15171
F19.08301886792453
I8
tp59
a(I7
I603
I804
I15413
F19.170398009950247
I5
tp60
a(I8
I611
I780
I15059
F19.306410256410256
I8
tp61
a(I9
I567
I772
I14952
F19.367875647668395
I7
tp62
asa(dp63
g2
F1.0
sg3
(lp64
(I0
I1063
I984
I20662
F20.997967479674795
I11
tp65
a(I1
I1017
I1002
I20498
F20.457085828343313
I9
tp66
a(I2
I1046
I1023
I21050
F20.576735092864126
I8
tp67
a(I3
I1089
I1027
I21620
F21.051606621226874
I15
tp68
a(I4
I922
I950
I19166
F20.174736842105265
I16
tp69
a(I5
I831
I944
I18851
F19.969279661016948
I15
tp70
a(I6
I795
I906
I17910
F19.7682119205298
I7
tp71
a(I7
I1109
I1012
I21072
F20.822134387351777
I14
tp72
a(I8
I854
I941
I18643
F19.811902231668437
I7
tp73
a(I9
I841
I937
I18967
F20.242262540021343
I20
tp74
asa(dp75
g2
F1.2000000000000002
sg3
(lp76
(I0
I1340
I1149
I25531
F22.220191470844213
I12
tp77
a(I1
I1309
I1112
I23600
F21.223021582733814
I15
tp78
a(I2
I1581
I1219
I27870
F22.863002461033634
I15
tp79
a(I3
I1419
I1172
I26319
F22.456484641638227
I12
tp80
a(I4
I1541
I1170
I26560
F22.700854700854702
I9
tp81
a(I5
I1431
I1130
I24840
F21.98230088495575
I15
tp82
a(I6
I1325
I1098
I24295
F22.126593806921676
I6
tp83
a(I7
I1523
I1195
I28159
F23.564016736401673
I12
tp84
a(I8
I1160
I1070
I22697
F21.21214953271028
I18
tp85
a(I9
I1604
I1208
I28693
F23.75248344370861
I11
tp86
asa(dp87
g2
F1.4000000000000001
sg3
(lp88
(I0
I1908
I1366
I34449
F25.218887262079065
I14
tp89
a(I1
I1803
I1318
I33859
F25.6896813353566
I9
tp90
a(I2
I1989
I1404
I37854
F26.96153846153846
I15
tp91
a(I3
I1969
I1365
I35712
F26.162637362637362
I13
tp92
a(I4
I1832
I1340
I33932
F25.322388059701492
I13
tp93
a(I5
I1783
I1291
I31744
F24.58869093725794
I16
tp94
a(I6
I1898
I1343
I34156
F25.432613551749814
I17
tp95
a(I7
I1813
I1326
I32509
F24.51659125188537
I10
tp96
a(I8
I1917
I1396
I36691
F26.28295128939828
I15
tp97
a(I9
I1882
I1339
I34789
F25.98132935026139
I23
tp98
asa(dp99
g2
F1.6
sg3
(lp100
(I0
I2208
I1506
I43257
F28.723107569721115
I16
tp101
a(I1
I2505
I1569
I55029
F35.072657743785854
I16
tp102
a(I2
I2284
I1493
I46436
F31.102478231748158
I12
tp103
a(I3
I2513
I1555
I47797
F30.737620578778134
I17
tp104
a(I4
I2220
I1488
I45062
F30.283602150537636
I19
tp105
a(I5
I2584
I1569
I49336
F31.444231994901212
I24
tp106
a(I6
I2144
I1438
I38695
F26.908901251738527
I20
tp107
a(I7
I2582
I1577
I53225
F33.75079264426125
I16
tp108
a(I8
I2324
I1517
I45164
F29.771918259723137
I19
tp109
a(I9
I2386
I1526
I44386
F29.086500655307994
I14
tp110
asa(dp111
g2
F1.8
sg3
(lp112
(I0
I2747
I1658
I65011
F39.21049457177322
I17
tp113
a(I1
I2745
I1658
I66643
F40.19481302774427
I17
tp114
a(I2
I2895
I1686
I74413
F44.13582443653618
I16
tp115
a(I3
I2778
I1661
I62984
F37.91932570740518
I7
tp116
a(I4
I2834
I1703
I73271
F43.024662360540226
I20
tp117
a(I5
I2773
I1702
I75063
F44.10282021151586
I16
tp118
a(I6
I2524
I1605
I53294
F33.20498442367601
I27
tp119
a(I7
I2821
I1678
I68440
F40.786650774731825
I23
tp120
a(I8
I2943
I1685
I69858
F41.45875370919881
I19
tp121
a(I9
I2564
I1612
I55068
F34.16129032258065
I17
tp122
asa(dp123
g2
F2.0
sg3
(lp124
(I0
I3113
I1848
I109675
F59.347943722943725
I32
tp125
a(I1
I3054
I1788
I85765
F47.96700223713646
I26
tp126
a(I2
I2996
I1775
I93336
F52.583661971830985
I21
tp127
a(I3
I3093
I1855
I107688
F58.052830188679245
I23
tp128
a(I4
I3082
I1794
I85992
F47.93311036789298
I27
tp129
a(I5
I3218
I1872
I115535
F61.71741452991453
I27
tp130
a(I6
I3260
I1838
I106046
F57.696409140369965
I24
tp131
a(I7
I3116
I1808
I102401
F56.637721238938056
I29
tp132
a(I8
I3195
I1840
I98650
F53.61413043478261
I21
tp133
a(I9
I3238
I1806
I102736
F56.8859357696567
I22
tp134
asa(dp135
g2
F2.2
sg3
(lp136
(I0
I3396
I1953
I140568
F71.97542242703533
I29
tp137
a(I1
I3304
I1913
I127107
F66.44380554103502
I25
tp138
a(I2
I3242
I1934
I133563
F69.06049638055843
I24
tp139
a(I3
I3557
I1917
I130859
F68.26238914971309
I21
tp140
a(I4
I3351
I1913
I136524
F71.36644014636697
I20
tp141
a(I5
I3475
I1919
I138487
F72.16623241271496
I29
tp142
a(I6
I3345
I1910
I122359
F64.06230366492147
I26
tp143
a(I7
I3469
I1890
I129185
F68.35185185185185
I32
tp144
a(I8
I3370
I1886
I115904
F61.45493107104984
I22
tp145
a(I9
I3270
I1928
I147232
F76.36514522821577
I20
tp146
asa(dp147
g2
F2.4000000000000004
sg3
(lp148
(I0
I3114
I1954
I170851
F87.43654042988742
I31
tp149
a(I1
I3209
I1995
I157483
F78.93884711779448
I22
tp150
a(I2
I3314
I1980
I157009
F79.29747474747475
I24
tp151
a(I3
I3246
I2012
I174962
F86.95924453280318
I18
tp152
a(I4
I3386
I1972
I145986
F74.02941176470588
I24
tp153
a(I5
I3337
I2018
I173696
F86.07333994053518
I18
tp154
a(I6
I3175
I2005
I166429
F83.0069825436409
I24
tp155
a(I7
I3278
I1977
I145503
F73.597875569044
I20
tp156
a(I8
I3275
I1929
I138766
F71.93675479523068
I27
tp157
a(I9
I3077
I1976
I170692
F86.38259109311741
I15
tp158
asa(dp159
g2
F2.6
sg3
(lp160
(I0
I2917
I2040
I201131
F98.59362745098039
I64
tp161
a(I1
I3000
I2042
I189401
F92.75269343780607
I40
tp162
a(I2
I3286
I2082
I182371
F87.59414024975985
I27
tp163
a(I3
I3253
I2054
I179681
F87.47857838364168
I29
tp164
a(I4
I3184
I2060
I166316
F80.73592233009708
I23
tp165
a(I5
I3080
I2041
I188452
F92.33317001469868
I42
tp166
a(I6
I3191
I2085
I192145
F92.1558752997602
I38
tp167
a(I7
I3070
I2057
I187033
F90.92513368983957
I39
tp168
a(I8
I3121
I2054
I180969
F88.10564751703993
I30
tp169
a(I9
I3059
I2068
I186067
F89.97437137330755
I61
tp170
asa(dp171
g2
F2.8000000000000003
sg3
(lp172
(I0
I2924
I2171
I208928
F96.23583602026716
I146
tp173
a(I1
I2794
I2131
I214397
F100.60863444392304
I180
tp174
a(I2
I2928
I2115
I200352
F94.7290780141844
I163
tp175
a(I3
I2992
I2165
I210070
F97.03002309468822
I103
tp176
a(I4
I3058
I2118
I206476
F97.48630783758263
I214
tp177
a(I5
I3148
I2129
I200123
F93.99859088774072
I144
tp178
a(I6
I2951
I2163
I214493
F99.16458622283865
I173
tp179
a(I7
I2995
I2148
I208366
F97.0046554934823
I130
tp180
a(I8
I2910
I2114
I213873
F101.16982024597918
I166
tp181
a(I9
I2543
I2107
I221084
F104.92833412434742
I117
tp182
asa(dp183
g2
F3.0
sg3
(lp184
(I0
I2662
I2186
I227303
F103.98124428179322
I227
tp185
a(I1
I2773
I2142
I215428
F100.5732959850607
I226
tp186
a(I2
I2775
I2126
I219869
F103.41909689557855
I276
tp187
a(I3
I2653
I2188
I221494
F101.23126142595979
I239
tp188
a(I4
I2832
I2156
I209508
F97.17439703153988
I305
tp189
a(I5
I2659
I2166
I217078
F100.22068328716529
I262
tp190
a(I6
I2867
I2096
I212081
F101.18368320610686
I282
tp191
a(I7
I2706
I2152
I216542
F100.6236059479554
I349
tp192
a(I8
I2721
I2095
I206313
F98.47875894988067
I292
tp193
a(I9
I3223
I2176
I225277
F103.52803308823529
I313
tp194
asa.