(lp0
(dp1
S'flow'
p2
F0.1
sS'result'
p3
(lp4
(I0
I6
I86
I1454
F16.906976744186046
I1
tp5
a(I1
I11
I99
I1665
F16.818181818181817
I0
tp6
a(I2
I7
I88
I1482
F16.84090909090909
I1
tp7
a(I3
I3
I78
I1321
F16.935897435897434
I0
tp8
a(I4
I4
I86
I1431
F16.63953488372093
I1
tp9
a(I5
I3
I86
I1443
F16.77906976744186
I0
tp10
a(I6
I3
I97
I1636
F16.8659793814433
I1
tp11
a(I7
I10
I101
I1720
F17.02970297029703
I0
tp12
a(I8
I3
I83
I1377
F16.59036144578313
I1
tp13
a(I9
I7
I114
I1891
F16.587719298245613
I0
tp14
asa(dp15
g2
F0.2
sg3
(lp16
(I0
I25
I186
I3122
F16.78494623655914
I0
tp17
a(I1
I31
I200
I3425
F17.125
I2
tp18
a(I2
I36
I212
I3639
F17.16509433962264
I2
tp19
a(I3
I22
I156
I2696
F17.28205128205128
I0
tp20
a(I4
I27
I193
I3376
F17.492227979274613
I0
tp21
a(I5
I26
I178
I3056
F17.168539325842698
I0
tp22
a(I6
I32
I189
I3254
F17.21693121693122
I1
tp23
a(I7
I19
I201
I3430
F17.064676616915424
I4
tp24
a(I8
I39
I224
I3857
F17.21875
I2
tp25
a(I9
I27
I218
I3732
F17.119266055045873
I0
tp26
asa(dp27
g2
F0.4
sg3
(lp28
(I0
I119
I376
I6683
F17.773936170212767
I1
tp29
a(I1
I135
I422
I7536
F17.85781990521327
I7
tp30
a(I2
I122
I394
I6987
F17.733502538071065
I4
tp31
a(I3
I108
I392
I6848
F17.46938775510204
I3
tp32
a(I4
I126
I396
I7012
F17.707070707070706
I7
tp33
a(I5
I110
I378
I6593
F17.441798941798943
I2
tp34
a(I6
I115
I394
I6942
F17.619289340101524
I4
tp35
a(I7
I131
I390
I7013
F17.98205128205128
I4
tp36
a(I8
I123
I384
I6736
F17.541666666666668
I8
tp37
a(I9
I137
I409
I7248
F17.721271393643033
I3
tp38
asa(dp39
g2
F0.6000000000000001
sg3
(lp40
(I0
I290
I540
I10095
F18.694444444444443
I4
tp41
a(I1
I274
I582
I10700
F18.38487972508591
I7
tp42
a(I2
I367
I625
I11746
F18.7936
I5
tp43
a(I3
I294
I578
I10716
F18.53979238754325
I2
tp44
a(I4
I280
I557
I10367
F18.61220825852783
I4
tp45
a(I5
I258
I566
I10423
F18.415194346289752
I3
tp46
a(I6
I271
I570
I10617
F18.626315789473683
I2
tp47
a(I7
I301
I575
I10698
F18.605217391304347
I8
tp48
a(I8
I282
I574
I10612
F18.48780487804878
I2
tp49
a(I9
I304
I579
I10836
F18.71502590673575
I1
tp50
asa(dp51
g2
F0.8
sg3
(lp52
(I0
I670
I791
I15963
F20.18078381795196
I10
tp53
a(I1
I609
I750
I15168
F20.224
I9
tp54
a(I2
I628
I803
I15971
F19.889165628891657
I7
tp55
a(I3
I601
I787
I15537
F19.742058449809402
I7
tp56
a(I4
I694
I806
I16303
F20.227047146401986
I11
tp57
a(I5
I506
I704
I13806
F19.610795454545453
I8
tp58
a(I6
I664
I808
I16159
F19.998762376237625
I6
tp59
a(I7
I807
I830
I17696
F21.320481927710844
I7
tp60
a(I8
I699
I808
I16393
F20.288366336633665
I6
tp61
a(I9
I654
I816
I16396
F20.09313725490196
I3
tp62
asa(dp63
g2
F1.0
sg3
(lp64
(I0
I935
I933
I19688
F21.10182207931404
I13
tp65
a(I1
I1211
I1021
I24799
F24.288932419196865
I6
tp66
a(I2
I1206
I999
I23223
F23.246246246246248
I8
tp67
a(I3
I1087
I970
I22656
F23.356701030927834
I10
tp68
a(I4
I990
I934
I20319
F21.754817987152034
I6
tp69
a(I5
I948
I917
I19948
F21.753544165757905
I10
tp70
a(I6
I1122
I971
I21651
F22.29763130792997
I10
tp71
a(I7
I1031
I952
I21173
F22.240546218487395
I8
tp72
a(I8
I1117
I964
I21532
F22.33609958506224
I9
tp73
a(I9
I1074
I961
I21701
F22.58168574401665
I9
tp74
asa(dp75
g2
F1.2000000000000002
sg3
(lp76
(I0
I1584
I1141
I32742
F28.695880806310253
I7
tp77
a(I1
I1548
I1130
I30722
F27.187610619469027
I8
tp78
a(I2
I1596
I1141
I31046
F27.209465381244524
I10
tp79
a(I3
I1697
I1173
I45802
F39.04688832054561
I6
tp80
a(I4
I1509
I1114
I29852
F26.79712746858169
I8
tp81
a(I5
I1659
I1153
I36750
F31.873373807458805
I8
tp82
a(I6
I1529
I1122
I34593
F30.831550802139038
I5
tp83
a(I7
I1618
I1156
I38102
F32.96020761245675
I8
tp84
a(I8
I1474
I1142
I29890
F26.17338003502627
I12
tp85
a(I9
I1680
I1193
I57375
F48.093042749371335
I15
tp86
asa(dp87
g2
F1.4000000000000001
sg3
(lp88
(I0
I1818
I1270
I92561
F72.88267716535434
I11
tp89
a(I1
I1874
I1277
I72437
F56.72435395458105
I11
tp90
a(I2
I1690
I1222
I78565
F64.29214402618658
I7
tp91
a(I3
I1758
I1216
I62785
F51.63240131578947
I14
tp92
a(I4
I1824
I1256
I73798
F58.75636942675159
I12
tp93
a(I5
I1823
I1266
I72022
F56.88941548183254
I18
tp94
a(I6
I1754
I1247
I98142
F78.70248596631916
I16
tp95
a(I7
I1794
I1231
I84110
F68.32656376929326
I14
tp96
a(I8
I1831
I1278
I81403
F63.695618153364634
I9
tp97
a(I9
I1813
I1282
I80301
F62.637285491419654
I13
tp98
asa(dp99
g2
F1.6
sg3
(lp100
(I0
I1885
I1325
I125589
F94.78415094339623
I15
tp101
a(I1
I1851
I1290
I112512
F87.21860465116279
I11
tp102
a(I2
I1904
I1323
I131855
F99.6636432350718
I18
tp103
a(I3
I1817
I1309
I155153
F118.52788388082506
I19
tp104
a(I4
I1855
I1291
I123598
F95.73818745158792
I7
tp105
a(I5
I1872
I1310
I103942
F79.34503816793894
I13
tp106
a(I6
I1788
I1286
I128342
F99.79937791601866
I9
tp107
a(I7
I1814
I1300
I125050
F96.1923076923077
I14
tp108
a(I8
I1863
I1316
I138367
F105.1420972644377
I18
tp109
a(I9
I1837
I1295
I123276
F95.19382239382239
I10
tp110
asa(dp111
g2
F1.8
sg3
(lp112
(I0
I1703
I1313
I188486
F143.55369383092156
I61
tp113
a(I1
I1805
I1338
I173496
F129.66816143497758
I20
tp114
a(I2
I1609
I1335
I197020
F147.58052434456928
I18
tp115
a(I3
I1831
I1375
I179457
F130.5141818181818
I20
tp116
a(I4
I1753
I1315
I168866
F128.4152091254753
I20
tp117
a(I5
I1753
I1336
I162969
F121.98278443113773
I11
tp118
a(I6
I1738
I1314
I169670
F129.1248097412481
I20
tp119
a(I7
I1646
I1299
I179602
F138.26173979984603
I73
tp120
a(I8
I1678
I1317
I176609
F134.09946848899014
I55
tp121
a(I9
I1708
I1270
I158168
F124.54173228346457
I37
tp122
asa(dp123
g2
F2.0
sg3
(lp124
(I0
I1497
I1334
I205099
F153.74737631184408
I146
tp125
a(I1
I1509
I1329
I211545
F159.17607223476298
I225
tp126
a(I2
I1507
I1326
I206351
F155.61915535444948
I138
tp127
a(I3
I1445
I1339
I214181
F159.95593726661687
I241
tp128
a(I4
I1420
I1297
I204658
F157.79336931380107
I222
tp129
a(I5
I1502
I1335
I201923
F151.25318352059926
I156
tp130
a(I6
I1520
I1335
I215414
F161.35880149812735
I213
tp131
a(I7
I1546
I1359
I216501
F159.30905077262693
I170
tp132
a(I8
I1541
I1343
I216358
F161.1005212211467
I255
tp133
a(I9
I1637
I1335
I206853
F154.94606741573034
I194
tp134
asa(dp135
g2
F2.2
sg3
(lp136
(I0
I1339
I1317
I238018
F180.72741078208048
I417
tp137
a(I1
I1490
I1363
I224678
F164.84079236977257
I276
tp138
a(I2
I1379
I1341
I228036
F170.04921700223713
I501
tp139
a(I3
I1423
I1341
I238228
F177.64951528709918
I318
tp140
a(I4
I1369
I1318
I226635
F171.953717754173
I372
tp141
a(I5
I1393
I1332
I241922
F181.62312312312312
I431
tp142
a(I6
I1334
I1316
I228323
F173.49772036474164
I371
tp143
a(I7
I1418
I1367
I239663
F175.32040965618143
I382
tp144
a(I8
I1492
I1342
I228096
F169.9672131147541
I378
tp145
a(I9
I1438
I1369
I233089
F170.26223520818115
I420
tp146
asa(dp147
g2
F2.4000000000000004
sg3
(lp148
(I0
I1403
I1367
I244686
F178.99487929773227
I560
tp149
a(I1
I1344
I1357
I239073
F176.17759764185703
I560
tp150
a(I2
I1351
I1335
I245770
F184.09737827715355
I660
tp151
a(I3
I1222
I1324
I251202
F189.7296072507553
I504
tp152
a(I4
I1349
I1351
I248307
F183.79496669133974
I538
tp153
a(I5
I1287
I1321
I251991
F190.75775927327783
I655
tp154
a(I6
I1314
I1342
I251905
F187.70864381520119
I637
tp155
a(I7
I1363
I1361
I242380
F178.08963997060985
I491
tp156
a(I8
I1345
I1346
I245864
F182.66270430906388
I655
tp157
a(I9
I1330
I1304
I234791
F180.05444785276075
I540
tp158
asa(dp159
g2
F2.6
sg3
(lp160
(I0
I1242
I1366
I270008
F197.6632503660322
I792
tp161
a(I1
I1287
I1350
I259819
F192.45851851851853
I778
tp162
a(I2
I1247
I1333
I252184
F189.185296324081
I854
tp163
a(I3
I1260
I1345
I267051
F198.55092936802973
I844
tp164
a(I4
I1266
I1368
I261357
F191.05043859649123
I733
tp165
a(I5
I1295
I1352
I252607
F186.83949704142012
I760
tp166
a(I6
I1276
I1347
I265928
F197.42242019302154
I822
tp167
a(I7
I1307
I1350
I251373
F186.20222222222222
I771
tp168
a(I8
I1275
I1338
I256872
F191.98206278026905
I758
tp169
a(I9
I1243
I1320
I256030
F193.96212121212122
I867
tp170
asa(dp171
g2
F2.8000000000000003
sg3
(lp172
(I0
I1231
I1341
I253853
F189.3012677106637
I954
tp173
a(I1
I1211
I1316
I255859
F194.42173252279636
I932
tp174
a(I2
I1168
I1348
I270082
F200.35756676557864
I981
tp175
a(I3
I1318
I1368
I268648
F196.38011695906434
I1002
tp176
a(I4
I1216
I1331
I267589
F201.0435762584523
I1002
tp177
a(I5
I1224
I1363
I272812
F200.15553925165077
I948
tp178
a(I6
I1255
I1371
I261397
F190.66156090444932
I1006
tp179
a(I7
I1279
I1360
I260877
F191.82132352941176
I968
tp180
a(I8
I1216
I1346
I268453
F199.44502228826153
I989
tp181
a(I9
I1209
I1361
I265339
F194.95885378398236
I1024
tp182
asa(dp183
g2
F3.0
sg3
(lp184
(I0
I1146
I1324
I270262
F204.12537764350452
I1204
tp185
a(I1
I1120
I1316
I277183
F210.62537993920972
I1185
tp186
a(I2
I1188
I1353
I277151
F204.84183296378419
I1209
tp187
a(I3
I1205
I1338
I263933
F197.2593423019432
I1145
tp188
a(I4
I1186
I1371
I270111
F197.01750547045953
I1216
tp189
a(I5
I1193
I1378
I271069
F196.71190130624092
I1202
tp190
a(I6
I1204
I1334
I269011
F201.6574212893553
I1226
tp191
a(I7
I1260
I1386
I270747
F195.34415584415584
I1039
tp192
a(I8
I1233
I1376
I271940
F197.63081395348837
I1232
tp193
a(I9
I1267
I1346
I270455
F200.93239227340268
I1057
tp194
asa.