(lp0
(lp1
(I0
I15
I17
I366
F21.529411764705884
I0
tp2
a(I1
I2
I11
I202
F18.363636363636363
I0
tp3
a(I2
I6
I8
I170
F21.25
I0
tp4
a(I3
I11
I13
I280
F21.53846153846154
I0
tp5
a(I4
I4
I7
I136
F19.428571428571427
I0
tp6
a(I5
I7
I10
I199
F19.9
I0
tp7
a(I6
I8
I12
I215
F17.916666666666668
I0
tp8
a(I7
I5
I8
I166
F20.75
I0
tp9
a(I8
I7
I12
I253
F21.083333333333332
I0
tp10
a(I9
I6
I7
I160
F22.857142857142858
I0
tp11
aa(lp12
(I0
I85
I90
I1923
F21.366666666666667
I0
tp13
a(I1
I61
I90
I1876
F20.844444444444445
I0
tp14
a(I2
I77
I98
I2102
F21.448979591836736
I0
tp15
a(I3
I92
I107
I2282
F21.327102803738317
I0
tp16
a(I4
I72
I87
I1801
F20.701149425287355
I0
tp17
a(I5
I58
I86
I1813
F21.08139534883721
I0
tp18
a(I6
I97
I105
I2292
F21.82857142857143
I0
tp19
a(I7
I72
I86
I1884
F21.906976744186046
I0
tp20
a(I8
I60
I82
I1743
F21.25609756097561
I0
tp21
a(I9
I62
I89
I1833
F20.59550561797753
I0
tp22
aa(lp23
(I0
I179
I196
I4301
F21.943877551020407
I1
tp24
a(I1
I172
I176
I3989
F22.664772727272727
I1
tp25
a(I2
I200
I204
I4544
F22.274509803921568
I0
tp26
a(I3
I162
I174
I3920
F22.528735632183906
I0
tp27
a(I4
I181
I206
I4460
F21.650485436893202
I0
tp28
a(I5
I159
I195
I4269
F21.892307692307693
I1
tp29
a(I6
I179
I195
I4323
F22.16923076923077
I0
tp30
a(I7
I169
I186
I4198
F22.56989247311828
I0
tp31
a(I8
I151
I185
I4025
F21.756756756756758
I0
tp32
a(I9
I184
I193
I4094
F21.212435233160623
I0
tp33
aa(lp34
(I0
I300
I282
I6382
F22.631205673758867
I2
tp35
a(I1
I295
I298
I6687
F22.43959731543624
I1
tp36
a(I2
I294
I300
I6654
F22.18
I0
tp37
a(I3
I287
I289
I6592
F22.80968858131488
I0
tp38
a(I4
I301
I292
I6564
F22.47945205479452
I0
tp39
a(I5
I296
I319
I7069
F22.15987460815047
I1
tp40
a(I6
I274
I281
I6216
F22.12099644128114
I1
tp41
a(I7
I300
I288
I6483
F22.510416666666668
I0
tp42
a(I8
I303
I278
I6313
F22.70863309352518
I1
tp43
a(I9
I308
I293
I6643
F22.67235494880546
I0
tp44
aa(lp45
(I0
I451
I384
I9132
F23.78125
I1
tp46
a(I1
I431
I366
I8647
F23.62568306010929
I0
tp47
a(I2
I413
I342
I8255
F24.137426900584796
I0
tp48
a(I3
I440
I379
I8828
F23.29287598944591
I0
tp49
a(I4
I480
I395
I9333
F23.627848101265823
I1
tp50
a(I5
I405
I383
I8801
F22.97911227154047
I0
tp51
a(I6
I380
I370
I8441
F22.813513513513513
I0
tp52
a(I7
I411
I383
I8672
F22.642297650130548
I2
tp53
a(I8
I432
I375
I8963
F23.901333333333334
I1
tp54
a(I9
I410
I371
I8628
F23.256064690026953
I1
tp55
aa(lp56
(I0
I577
I471
I11209
F23.798301486199577
I1
tp57
a(I1
I638
I487
I11656
F23.93429158110883
I0
tp58
a(I2
I581
I453
I10812
F23.867549668874172
I0
tp59
a(I3
I631
I481
I11706
F24.33679833679834
I1
tp60
a(I4
I567
I486
I11348
F23.349794238683128
I2
tp61
a(I5
I620
I486
I11686
F24.045267489711936
I0
tp62
a(I6
I622
I498
I11883
F23.86144578313253
I0
tp63
a(I7
I678
I497
I12125
F24.396378269617706
I1
tp64
a(I8
I581
I482
I11442
F23.738589211618258
I1
tp65
a(I9
I548
I464
I11125
F23.976293103448278
I1
tp66
aa(lp67
(I0
I816
I591
I14637
F24.766497461928935
I1
tp68
a(I1
I787
I573
I14251
F24.87085514834206
I0
tp69
a(I2
I802
I590
I14397
F24.401694915254236
I1
tp70
a(I3
I783
I567
I14009
F24.707231040564373
I2
tp71
a(I4
I758
I561
I14004
F24.962566844919785
I0
tp72
a(I5
I777
I569
I14067
F24.72231985940246
I1
tp73
a(I6
I847
I607
I15331
F25.257001647446458
I0
tp74
a(I7
I769
I564
I13946
F24.72695035460993
I1
tp75
a(I8
I691
I551
I13333
F24.1978221415608
I0
tp76
a(I9
I700
I538
I13029
F24.21747211895911
I1
tp77
aa(lp78
(I0
I1112
I711
I18532
F26.064697609001406
I1
tp79
a(I1
I1097
I708
I18208
F25.717514124293785
I4
tp80
a(I2
I1127
I705
I18266
F25.90921985815603
I1
tp81
a(I3
I1045
I679
I17692
F26.055964653902798
I1
tp82
a(I4
I1004
I671
I16919
F25.214605067064085
I2
tp83
a(I5
I1152
I722
I18913
F26.195290858725762
I3
tp84
a(I6
I1036
I674
I17546
F26.032640949554896
I2
tp85
a(I7
I1089
I682
I17756
F26.035190615835777
I0
tp86
a(I8
I945
I653
I16640
F25.48238897396631
I2
tp87
a(I9
I998
I665
I17306
F26.02406015037594
I1
tp88
aa(lp89
(I0
I1223
I730
I19486
F26.693150684931506
I5
tp90
a(I1
I1203
I750
I20027
F26.702666666666666
I3
tp91
a(I2
I1548
I852
I23997
F28.16549295774648
I1
tp92
a(I3
I1318
I765
I20731
F27.099346405228758
I0
tp93
a(I4
I1331
I774
I21436
F27.695090439276484
I2
tp94
a(I5
I1490
I817
I22898
F28.026927784577722
I1
tp95
a(I6
I1430
I821
I22323
F27.190012180267967
I1
tp96
a(I7
I1418
I800
I22354
F27.9425
I1
tp97
a(I8
I1366
I796
I21657
F27.207286432160803
I2
tp98
a(I9
I1479
I822
I23135
F28.144768856447687
I5
tp99
aa(lp100
(I0
I1488
I824
I23433
F28.438106796116504
I1
tp101
a(I1
I1652
I877
I25249
F28.790193842645383
I2
tp102
a(I2
I1479
I853
I23530
F27.584994138335286
I1
tp103
a(I3
I1496
I857
I23772
F27.738623103850642
I0
tp104
a(I4
I1459
I842
I23189
F27.540380047505938
I2
tp105
a(I5
I1530
I863
I24295
F28.151796060254924
I2
tp106
a(I6
I1528
I842
I24187
F28.725653206650833
I4
tp107
a(I7
I1568
I866
I24419
F28.19745958429561
I2
tp108
a(I8
I1569
I852
I23824
F27.962441314553992
I1
tp109
a(I9
I1577
I863
I24386
F28.257242178447278
I2
tp110
aa(lp111
(I0
I1872
I943
I29186
F30.95015906680806
I1
tp112
a(I1
I1692
I918
I26190
F28.529411764705884
I2
tp113
a(I2
I2069
I1006
I31844
F31.65407554671968
I0
tp114
a(I3
I1937
I988
I31845
F32.23178137651822
I1
tp115
a(I4
I1810
I937
I27006
F28.82177161152615
I0
tp116
a(I5
I1809
I942
I27612
F29.312101910828027
I1
tp117
a(I6
I1718
I900
I26397
F29.33
I1
tp118
a(I7
I1826
I926
I27102
F29.26781857451404
I3
tp119
a(I8
I2052
I1002
I30749
F30.687624750499
I2
tp120
a(I9
I1924
I970
I29300
F30.20618556701031
I4
tp121
aa(lp122
(I0
I2111
I1023
I31372
F30.666666666666668
I1
tp123
a(I1
I1945
I982
I29667
F30.210794297352344
I3
tp124
a(I2
I2278
I1102
I40003
F36.30036297640653
I1
tp125
a(I3
I2204
I1093
I38576
F35.293687099725524
I4
tp126
a(I4
I2228
I1072
I37580
F35.05597014925373
I4
tp127
a(I5
I2148
I1079
I41898
F38.830398517145504
I2
tp128
a(I6
I2060
I1006
I31913
F31.722664015904574
I1
tp129
a(I7
I2066
I1019
I31940
F31.344455348380766
I3
tp130
a(I8
I2275
I1072
I36564
F34.10820895522388
I3
tp131
a(I9
I2061
I1020
I31397
F30.781372549019608
I0
tp132
aa(lp133
(I0
I2385
I1094
I37144
F33.95246800731262
I3
tp134
a(I1
I2343
I1146
I45183
F39.42670157068063
I3
tp135
a(I2
I2312
I1105
I39308
F35.57285067873303
I1
tp136
a(I3
I2367
I1146
I48533
F42.3499127399651
I3
tp137
a(I4
I2243
I1124
I49680
F44.19928825622776
I0
tp138
a(I5
I2244
I1067
I35675
F33.4348641049672
I3
tp139
a(I6
I2375
I1129
I45260
F40.08857395925598
I0
tp140
a(I7
I2341
I1168
I56130
F48.05650684931507
I1
tp141
a(I8
I2219
I1107
I43157
F38.98554652213189
I1
tp142
a(I9
I2445
I1134
I46204
F40.74426807760141
I2
tp143
aa(lp144
(I0
I2276
I1188
I70904
F59.68350168350168
I1
tp145
a(I1
I2308
I1181
I66505
F56.31244707874682
I4
tp146
a(I2
I2390
I1176
I56761
F48.26615646258504
I2
tp147
a(I3
I2319
I1193
I69366
F58.1441743503772
I1
tp148
a(I4
I2376
I1163
I57415
F49.36801375752365
I2
tp149
a(I5
I2284
I1182
I68115
F57.62690355329949
I1
tp150
a(I6
I2269
I1197
I72411
F60.4937343358396
I2
tp151
a(I7
I2259
I1168
I79682
F68.2208904109589
I0
tp152
a(I8
I2300
I1219
I87810
F72.03445447087776
I2
tp153
a(I9
I2347
I1188
I66907
F56.31902356902357
I2
tp154
aa(lp155
(I0
I2346
I1210
I76823
F63.490082644628096
I2
tp156
a(I1
I2080
I1210
I106021
F87.6206611570248
I1
tp157
a(I2
I2379
I1234
I80311
F65.08184764991896
I5
tp158
a(I3
I2240
I1206
I88811
F73.64096185737976
I3
tp159
a(I4
I2387
I1219
I80269
F65.84823625922887
I3
tp160
a(I5
I2133
I1210
I104864
F86.66446280991735
I2
tp161
a(I6
I2257
I1222
I90955
F74.43126022913258
I2
tp162
a(I7
I2435
I1210
I65953
F54.506611570247934
I2
tp163
a(I8
I2273
I1209
I80251
F66.37799834574028
I0
tp164
a(I9
I2220
I1262
I115563
F91.57131537242472
I2
tp165
aa(lp166
(I0
I2101
I1268
I127097
F100.23422712933754
I5
tp167
a(I1
I2172
I1238
I104528
F84.4329563812601
I3
tp168
a(I2
I2042
I1265
I136004
F107.51304347826087
I6
tp169
a(I3
I2086
I1249
I126828
F101.54363490792635
I3
tp170
a(I4
I2167
I1279
I127071
F99.35183737294761
I2
tp171
a(I5
I2147
I1246
I111259
F89.29293739967898
I4
tp172
a(I6
I2109
I1270
I129457
F101.93464566929134
I6
tp173
a(I7
I2106
I1258
I107525
F85.47297297297297
I2
tp174
a(I8
I2207
I1266
I110675
F87.42101105845181
I1
tp175
a(I9
I2083
I1266
I123022
F97.173775671406
I4
tp176
aa(lp177
(I0
I2157
I1287
I121095
F94.0909090909091
I5
tp178
a(I1
I1825
I1271
I174045
F136.93548387096774
I4
tp179
a(I2
I1871
I1256
I168759
F134.36226114649682
I6
tp180
a(I3
I1995
I1279
I147323
F115.18608287724786
I6
tp181
a(I4
I1885
I1245
I149641
F120.19357429718876
I5
tp182
a(I5
I1988
I1290
I158367
F122.76511627906977
I3
tp183
a(I6
I2099
I1308
I150088
F114.74617737003058
I4
tp184
a(I7
I2005
I1270
I154109
F121.34566929133858
I2
tp185
a(I8
I2021
I1266
I140611
F111.06714060031595
I4
tp186
a(I9
I1999
I1272
I149699
F117.687893081761
I6
tp187
aa(lp188
(I0
I2004
I1303
I165585
F127.07981580967
I2
tp189
a(I1
I1917
I1301
I180630
F138.8393543428132
I4
tp190
a(I2
I1848
I1284
I178091
F138.70015576323988
I3
tp191
a(I3
I1927
I1313
I174743
F133.0868240670221
I6
tp192
a(I4
I1865
I1291
I177897
F137.7978311386522
I3
tp193
a(I5
I1844
I1303
I185249
F142.17114351496545
I3
tp194
a(I6
I1737
I1278
I189910
F148.59937402190923
I14
tp195
a(I7
I1907
I1322
I183978
F139.16641452344933
I8
tp196
a(I8
I1953
I1280
I154306
F120.5515625
I0
tp197
a(I9
I1878
I1256
I159416
F126.92356687898089
I1
tp198
aa(lp199
(I0
I1736
I1286
I205205
F159.56842923794713
I19
tp200
a(I1
I1829
I1293
I186083
F143.91569992266048
I1
tp201
a(I2
I1853
I1281
I180598
F140.98204527712724
I44
tp202
a(I3
I1809
I1306
I189437
F145.05130168453292
I5
tp203
a(I4
I1773
I1274
I187333
F147.0431711145997
I12
tp204
a(I5
I1835
I1331
I187762
F141.06836964688205
I11
tp205
a(I6
I1829
I1304
I197409
F151.38726993865032
I33
tp206
a(I7
I1692
I1245
I197094
F158.30843373493977
I43
tp207
a(I8
I1851
I1283
I175204
F136.5580670303975
I6
tp208
a(I9
I1816
I1326
I200714
F151.36802413273003
I1
tp209
aa(lp210
(I0
I1498
I1311
I236583
F180.4599542334096
I166
tp211
a(I1
I1805
I1312
I196381
F149.68064024390245
I35
tp212
a(I2
I1772
I1293
I194702
F150.5815931941222
I16
tp213
a(I3
I1879
I1295
I177283
F136.8980694980695
I45
tp214
a(I4
I1610
I1324
I227277
F171.65936555891238
I129
tp215
a(I5
I1722
I1291
I207157
F160.46243222308289
I143
tp216
a(I6
I1697
I1323
I212917
F160.9349962207105
I123
tp217
a(I7
I1581
I1280
I214972
F167.946875
I155
tp218
a(I8
I1618
I1291
I212336
F164.47405112316034
I138
tp219
a(I9
I1860
I1309
I195817
F149.59281894576011
I41
tp220
aa(lp221
(I0
I1446
I1299
I238759
F183.80215550423404
I287
tp222
a(I1
I1530
I1324
I231611
F174.93277945619334
I178
tp223
a(I2
I1252
I1288
I259807
F201.7135093167702
I258
tp224
a(I3
I1433
I1314
I244397
F185.99467275494672
I197
tp225
a(I4
I1564
I1333
I231813
F173.90322580645162
I190
tp226
a(I5
I1445
I1311
I242341
F184.8520213577422
I252
tp227
a(I6
I1395
I1299
I244646
F188.33410315627407
I266
tp228
a(I7
I1576
I1287
I216920
F168.54700854700855
I208
tp229
a(I8
I1359
I1290
I238005
F184.5
I297
tp230
a(I9
I1551
I1312
I234310
F178.58993902439025
I257
tp231
aa.