(lp0
(dp1
S'flow'
p2
F0.01
sS'result'
p3
(lp4
(I0
I0
I11
I177
F16.09090909090909
I0
tp5
a(I1
I0
I5
I79
F15.8
I0
tp6
a(I2
I1
I14
I224
F16.0
I0
tp7
a(I3
I2
I9
I141
F15.666666666666666
I0
tp8
a(I4
I0
I8
I127
F15.875
I0
tp9
a(I5
I1
I11
I170
F15.454545454545455
I0
tp10
a(I6
I0
I7
I113
F16.142857142857142
I0
tp11
a(I7
I0
I11
I181
F16.454545454545453
I0
tp12
a(I8
I0
I4
I61
F15.25
I0
tp13
a(I9
I0
I6
I94
F15.666666666666666
I0
tp14
asa(dp15
g2
F0.1
sg3
(lp16
(I0
I17
I105
I1722
F16.4
I1
tp17
a(I1
I19
I87
I1455
F16.724137931034484
I1
tp18
a(I2
I8
I107
I1754
F16.39252336448598
I0
tp19
a(I3
I2
I82
I1340
F16.341463414634145
I0
tp20
a(I4
I14
I105
I1698
F16.17142857142857
I0
tp21
a(I5
I12
I109
I1750
F16.05504587155963
I1
tp22
a(I6
I11
I98
I1557
F15.887755102040817
I0
tp23
a(I7
I15
I110
I1808
F16.436363636363637
I0
tp24
a(I8
I15
I99
I1610
F16.262626262626263
I0
tp25
a(I9
I9
I81
I1309
F16.160493827160494
I0
tp26
asa(dp27
g2
F0.2
sg3
(lp28
(I0
I47
I230
I3855
F16.76086956521739
I0
tp29
a(I1
I31
I183
I3019
F16.497267759562842
I0
tp30
a(I2
I36
I172
I2833
F16.47093023255814
I1
tp31
a(I3
I37
I198
I3303
F16.681818181818183
I0
tp32
a(I4
I24
I171
I2836
F16.584795321637426
I0
tp33
a(I5
I39
I195
I3248
F16.656410256410258
I0
tp34
a(I6
I21
I177
I2953
F16.683615819209038
I1
tp35
a(I7
I27
I192
I3201
F16.671875
I1
tp36
a(I8
I30
I188
I3076
F16.361702127659573
I0
tp37
a(I9
I38
I212
I3482
F16.42452830188679
I1
tp38
asa(dp39
g2
F0.30000000000000004
sg3
(lp40
(I0
I55
I289
I4873
F16.86159169550173
I1
tp41
a(I1
I92
I313
I5372
F17.162939297124602
I0
tp42
a(I2
I61
I268
I4503
F16.80223880597015
I0
tp43
a(I3
I78
I308
I5218
F16.941558441558442
I1
tp44
a(I4
I72
I291
I4958
F17.037800687285223
I0
tp45
a(I5
I77
I323
I5449
F16.86996904024768
I0
tp46
a(I6
I69
I307
I5237
F17.058631921824105
I0
tp47
a(I7
I86
I311
I5263
F16.922829581993568
I1
tp48
a(I8
I68
I295
I4961
F16.816949152542374
I1
tp49
a(I9
I60
I280
I4680
F16.714285714285715
I0
tp50
asa(dp51
g2
F0.4
sg3
(lp52
(I0
I120
I380
I6574
F17.3
I0
tp53
a(I1
I119
I386
I6675
F17.292746113989637
I3
tp54
a(I2
I170
I398
I6993
F17.57035175879397
I0
tp55
a(I3
I107
I369
I6447
F17.471544715447155
I0
tp56
a(I4
I165
I411
I7285
F17.72506082725061
I0
tp57
a(I5
I91
I375
I6392
F17.045333333333332
I0
tp58
a(I6
I139
I398
I6992
F17.5678391959799
I2
tp59
a(I7
I139
I388
I6765
F17.435567010309278
I2
tp60
a(I8
I115
I366
I6274
F17.14207650273224
I1
tp61
a(I9
I155
I408
I7116
F17.441176470588236
I0
tp62
asa(dp63
g2
F0.5
sg3
(lp64
(I0
I181
I460
I8021
F17.43695652173913
I2
tp65
a(I1
I176
I462
I8072
F17.471861471861473
I1
tp66
a(I2
I235
I503
I9092
F18.07554671968191
I1
tp67
a(I3
I198
I461
I8226
F17.843817787418654
I2
tp68
a(I4
I178
I441
I7742
F17.555555555555557
I0
tp69
a(I5
I172
I466
I8146
F17.48068669527897
I2
tp70
a(I6
I218
I479
I8447
F17.63465553235908
I0
tp71
a(I7
I235
I499
I8900
F17.83567134268537
I1
tp72
a(I8
I192
I466
I8162
F17.51502145922747
I0
tp73
a(I9
I197
I461
I8244
F17.88286334056399
I0
tp74
asa(dp75
g2
F0.6000000000000001
sg3
(lp76
(I0
I311
I557
I10035
F18.016157989228006
I1
tp77
a(I1
I374
I579
I10773
F18.60621761658031
I1
tp78
a(I2
I318
I591
I10778
F18.23688663282572
I0
tp79
a(I3
I358
I577
I10597
F18.36568457538995
I1
tp80
a(I4
I284
I542
I9792
F18.066420664206642
I1
tp81
a(I5
I294
I569
I10340
F18.172231985940247
I0
tp82
a(I6
I367
I595
I10897
F18.314285714285713
I0
tp83
a(I7
I250
I528
I9431
F17.861742424242426
I1
tp84
a(I8
I293
I575
I10331
F17.96695652173913
I0
tp85
a(I9
I365
I607
I11260
F18.5502471169687
I1
tp86
asa(dp87
g2
F0.7000000000000001
sg3
(lp88
(I0
I622
I732
I14532
F19.852459016393443
I3
tp89
a(I1
I413
I658
I12313
F18.71276595744681
I1
tp90
a(I2
I515
I694
I13396
F19.302593659942364
I0
tp91
a(I3
I439
I633
I11962
F18.89731437598736
I1
tp92
a(I4
I382
I638
I11827
F18.537617554858933
I1
tp93
a(I5
I518
I689
I13359
F19.38896952104499
I1
tp94
a(I6
I430
I675
I12453
F18.448888888888888
I2
tp95
a(I7
I503
I710
I13456
F18.952112676056338
I0
tp96
a(I8
I583
I723
I14007
F19.37344398340249
I2
tp97
a(I9
I480
I694
I12947
F18.655619596541786
I3
tp98
asa(dp99
g2
F0.8
sg3
(lp100
(I0
I750
I795
I16032
F20.166037735849056
I3
tp101
a(I1
I730
I798
I15921
F19.951127819548873
I1
tp102
a(I2
I679
I783
I15502
F19.798212005108557
I0
tp103
a(I3
I717
I801
I16030
F20.012484394506867
I1
tp104
a(I4
I602
I740
I14550
F19.66216216216216
I2
tp105
a(I5
I675
I751
I15300
F20.3728362183755
I1
tp106
a(I6
I613
I755
I14755
F19.543046357615893
I2
tp107
a(I7
I614
I746
I14770
F19.798927613941018
I0
tp108
a(I8
I711
I810
I16474
F20.33827160493827
I1
tp109
a(I9
I619
I775
I14997
F19.350967741935484
I1
tp110
asa(dp111
g2
F0.9
sg3
(lp112
(I0
I1081
I905
I20313
F22.445303867403315
I1
tp113
a(I1
I820
I841
I16986
F20.197384066587396
I2
tp114
a(I2
I972
I877
I19042
F21.712656784492587
I1
tp115
a(I3
I868
I847
I17492
F20.651711924439198
I1
tp116
a(I4
I813
I850
I17258
F20.303529411764707
I2
tp117
a(I5
I967
I880
I19320
F21.954545454545453
I2
tp118
a(I6
I814
I846
I17188
F20.31678486997636
I2
tp119
a(I7
I904
I860
I18110
F21.058139534883722
I4
tp120
a(I8
I959
I874
I19274
F22.05263157894737
I1
tp121
a(I9
I890
I844
I18010
F21.338862559241708
I1
tp122
asa(dp123
g2
F1.0
sg3
(lp124
(I0
I993
I907
I19722
F21.744211686879822
I1
tp125
a(I1
I1115
I948
I20959
F22.108649789029535
I2
tp126
a(I2
I987
I922
I19808
F21.483731019522775
I2
tp127
a(I3
I1147
I913
I20625
F22.59036144578313
I1
tp128
a(I4
I1037
I921
I20334
F22.078175895765472
I4
tp129
a(I5
I1071
I925
I20547
F22.212972972972974
I2
tp130
a(I6
I1359
I968
I23942
F24.733471074380166
I0
tp131
a(I7
I1060
I899
I20097
F22.35483870967742
I2
tp132
a(I8
I1080
I937
I20562
F21.944503735325508
I1
tp133
a(I9
I1185
I953
I21694
F22.763903462749212
I0
tp134
asa(dp135
g2
F1.1
sg3
(lp136
(I0
I1721
I1110
I33425
F30.11261261261261
I3
tp137
a(I1
I1505
I1044
I25929
F24.836206896551722
I1
tp138
a(I2
I1514
I1069
I27067
F25.319925163704397
I3
tp139
a(I3
I1500
I1050
I27530
F26.21904761904762
I0
tp140
a(I4
I1239
I988
I22734
F23.010121457489877
I3
tp141
a(I5
I1616
I1068
I28078
F26.290262172284645
I5
tp142
a(I6
I1483
I1070
I27564
F25.760747663551403
I0
tp143
a(I7
I1533
I1049
I27128
F25.860819828408008
I3
tp144
a(I8
I1564
I1051
I27621
F26.280685061845862
I3
tp145
a(I9
I1549
I1083
I27549
F25.437673130193907
I0
tp146
asa(dp147
g2
F1.2000000000000002
sg3
(lp148
(I0
I1741
I1165
I35098
F30.12703862660944
I0
tp149
a(I1
I1778
I1146
I35390
F30.88132635253054
I1
tp150
a(I2
I1811
I1151
I37707
F32.76020851433536
I0
tp151
a(I3
I1854
I1166
I36707
F31.4811320754717
I2
tp152
a(I4
I1747
I1139
I31909
F28.01492537313433
I6
tp153
a(I5
I1785
I1160
I34977
F30.15258620689655
I1
tp154
a(I6
I1584
I1075
I28274
F26.30139534883721
I1
tp155
a(I7
I1614
I1103
I31184
F28.271985494106982
I3
tp156
a(I8
I1726
I1123
I34292
F30.53606411398041
I0
tp157
a(I9
I1630
I1124
I30012
F26.701067615658364
I4
tp158
asa(dp159
g2
F1.3
sg3
(lp160
(I0
I1920
I1202
I46977
F39.082362728785355
I2
tp161
a(I1
I1970
I1223
I45713
F37.377759607522485
I4
tp162
a(I2
I1811
I1169
I35249
F30.153122326775023
I0
tp163
a(I3
I1998
I1232
I48312
F39.214285714285715
I0
tp164
a(I4
I1942
I1219
I58655
F48.117309269893354
I1
tp165
a(I5
I1986
I1216
I45817
F37.67845394736842
I4
tp166
a(I6
I1923
I1199
I42150
F35.154295246038366
I3
tp167
a(I7
I1884
I1222
I62541
F51.179214402618655
I3
tp168
a(I8
I2022
I1240
I54043
F43.583064516129035
I2
tp169
a(I9
I1923
I1206
I64789
F53.72222222222222
I1
tp170
asa(dp171
g2
F1.4000000000000001
sg3
(lp172
(I0
I2041
I1282
I71190
F55.53042121684867
I3
tp173
a(I1
I1980
I1227
I65071
F53.03259983700082
I1
tp174
a(I2
I1902
I1226
I55980
F45.66068515497553
I4
tp175
a(I3
I2034
I1266
I73577
F58.11769352290679
I3
tp176
a(I4
I1813
I1237
I77602
F62.734033953112366
I1
tp177
a(I5
I1941
I1262
I84221
F66.73613312202852
I1
tp178
a(I6
I1911
I1277
I99599
F77.99451840250588
I3
tp179
a(I7
I2026
I1274
I89475
F70.23155416012558
I2
tp180
a(I8
I2023
I1232
I57189
F46.419642857142854
I7
tp181
a(I9
I2003
I1287
I68587
F53.292152292152295
I1
tp182
asa(dp183
g2
F1.5
sg3
(lp184
(I0
I1885
I1275
I114818
F90.05333333333333
I1
tp185
a(I1
I1929
I1269
I104095
F82.02915681639085
I2
tp186
a(I2
I2065
I1315
I91737
F69.76197718631178
I4
tp187
a(I3
I1975
I1279
I91929
F71.87568412822517
I6
tp188
a(I4
I1957
I1274
I90117
F70.73547880690738
I4
tp189
a(I5
I2022
I1290
I88722
F68.77674418604651
I4
tp190
a(I6
I1920
I1277
I89278
F69.91229444009397
I2
tp191
a(I7
I1975
I1311
I100862
F76.93516399694889
I2
tp192
a(I8
I2047
I1288
I85335
F66.25388198757764
I4
tp193
a(I9
I1901
I1263
I88516
F70.08392715756136
I5
tp194
asa(dp195
g2
F1.6
sg3
(lp196
(I0
I1894
I1293
I115546
F89.36272235112142
I6
tp197
a(I1
I1911
I1293
I134773
F104.23279195668987
I3
tp198
a(I2
I1941
I1314
I126274
F96.09893455098934
I2
tp199
a(I3
I1975
I1309
I110564
F84.46447669977081
I2
tp200
a(I4
I1904
I1254
I104653
F83.45534290271132
I2
tp201
a(I5
I1850
I1278
I131461
F102.86463223787167
I2
tp202
a(I6
I1766
I1297
I144720
F111.58057054741711
I3
tp203
a(I7
I1885
I1325
I141752
F106.98264150943396
I2
tp204
a(I8
I2007
I1301
I99108
F76.1783243658724
I4
tp205
a(I9
I1879
I1285
I131933
F102.6715953307393
I4
tp206
asa(dp207
g2
F1.7000000000000002
sg3
(lp208
(I0
I1843
I1326
I157829
F119.02639517345399
I2
tp209
a(I1
I1831
I1336
I166985
F124.98877245508982
I3
tp210
a(I2
I1997
I1337
I128370
F96.01346297681376
I1
tp211
a(I3
I1857
I1287
I142983
F111.0979020979021
I2
tp212
a(I4
I1981
I1330
I126397
F95.03533834586466
I2
tp213
a(I5
I1916
I1310
I134751
F102.86335877862595
I4
tp214
a(I6
I2009
I1320
I138280
F104.75757575757575
I1
tp215
a(I7
I1957
I1322
I126796
F95.91225416036309
I3
tp216
a(I8
I1898
I1297
I134080
F103.37702390131072
I5
tp217
a(I9
I1859
I1304
I136454
F104.64263803680981
I1
tp218
asa(dp219
g2
F1.8
sg3
(lp220
(I0
I1835
I1327
I163351
F123.09796533534288
I4
tp221
a(I1
I1772
I1294
I159405
F123.18778979907265
I2
tp222
a(I2
I1877
I1372
I178073
F129.7908163265306
I0
tp223
a(I3
I1793
I1329
I175446
F132.0135440180587
I7
tp224
a(I4
I1683
I1300
I180213
F138.6253846153846
I48
tp225
a(I5
I1804
I1312
I163882
F124.91006097560975
I10
tp226
a(I6
I1780
I1313
I169757
F129.2894135567403
I3
tp227
a(I7
I1767
I1314
I177131
F134.80289193302892
I3
tp228
a(I8
I1730
I1299
I183072
F140.93302540415704
I63
tp229
a(I9
I1795
I1342
I172892
F128.8315946348733
I4
tp230
asa(dp231
g2
F1.9000000000000001
sg3
(lp232
(I0
I1722
I1343
I186236
F138.6716306775875
I24
tp233
a(I1
I1888
I1381
I173862
F125.89572773352643
I28
tp234
a(I2
I1778
I1331
I173003
F129.97971450037565
I17
tp235
a(I3
I1672
I1344
I180778
F134.50744047619048
I60
tp236
a(I4
I1839
I1365
I170654
F125.02124542124542
I40
tp237
a(I5
I1647
I1353
I204225
F150.94235033259423
I55
tp238
a(I6
I1721
I1340
I181722
F135.6134328358209
I23
tp239
a(I7
I1580
I1301
I195522
F150.2859338970023
I45
tp240
a(I8
I1742
I1314
I178373
F135.74809741248097
I58
tp241
a(I9
I1721
I1291
I169806
F131.53059643687064
I26
tp242
asa(dp243
g2
F2.0
sg3
(lp244
(I0
I1716
I1341
I187411
F139.75466070096942
I55
tp245
a(I1
I1417
I1340
I225984
F168.644776119403
I239
tp246
a(I2
I1533
I1312
I210151
F160.17606707317074
I199
tp247
a(I3
I1469
I1330
I213855
F160.79323308270676
I186
tp248
a(I4
I1767
I1363
I188938
F138.61922230374174
I75
tp249
a(I5
I1517
I1320
I205224
F155.47272727272727
I207
tp250
a(I6
I1579
I1330
I201047
F151.16315789473686
I102
tp251
a(I7
I1748
I1368
I192631
F140.81213450292398
I56
tp252
a(I8
I1629
I1334
I197896
F148.34782608695653
I95
tp253
a(I9
I1631
I1337
I194137
F145.20344053851906
I132
tp254
asa.