(lp0
(lp1
(I0
I0
I9
I140
F15.555555555555555
I0
tp2
a(I1
I0
I5
I82
F16.4
I0
tp3
a(I2
I0
I16
I253
F15.8125
I0
tp4
a(I3
I0
I15
I233
F15.533333333333333
I0
tp5
a(I4
I0
I5
I76
F15.2
I0
tp6
a(I5
I1
I11
I177
F16.09090909090909
I1
tp7
a(I6
I1
I7
I113
F16.142857142857142
I0
tp8
a(I7
I0
I8
I123
F15.375
I0
tp9
a(I8
I0
I11
I167
F15.181818181818182
I0
tp10
a(I9
I1
I18
I283
F15.722222222222221
I0
tp11
a(I10
I1
I11
I176
F16.0
I0
tp12
a(I11
I0
I12
I190
F15.833333333333334
I0
tp13
a(I12
I0
I7
I121
F17.285714285714285
I0
tp14
a(I13
I0
I9
I144
F16.0
I0
tp15
a(I14
I0
I12
I191
F15.916666666666666
I0
tp16
a(I15
I0
I7
I111
F15.857142857142858
I0
tp17
a(I16
I0
I4
I61
F15.25
I0
tp18
a(I17
I1
I10
I156
F15.6
I1
tp19
a(I18
I0
I7
I114
F16.285714285714285
I0
tp20
a(I19
I0
I12
I188
F15.666666666666666
I0
tp21
aa(lp22
(I0
I8
I106
I1735
F16.367924528301888
I0
tp23
a(I1
I9
I108
I1740
F16.11111111111111
I1
tp24
a(I2
I4
I82
I1350
F16.463414634146343
I1
tp25
a(I3
I10
I96
I1601
F16.677083333333332
I0
tp26
a(I4
I8
I93
I1500
F16.129032258064516
I0
tp27
a(I5
I4
I91
I1470
F16.153846153846153
I0
tp28
a(I6
I5
I85
I1372
F16.141176470588235
I0
tp29
a(I7
I8
I86
I1401
F16.290697674418606
I0
tp30
a(I8
I7
I105
I1699
F16.18095238095238
I0
tp31
a(I9
I8
I100
I1607
F16.07
I0
tp32
a(I10
I9
I97
I1571
F16.195876288659793
I1
tp33
a(I11
I8
I96
I1560
F16.25
I0
tp34
a(I12
I1
I78
I1244
F15.948717948717949
I1
tp35
a(I13
I9
I89
I1446
F16.247191011235955
I0
tp36
a(I14
I8
I104
I1718
F16.51923076923077
I0
tp37
a(I15
I5
I82
I1299
F15.841463414634147
I0
tp38
a(I16
I13
I102
I1649
F16.166666666666668
I0
tp39
a(I17
I7
I115
I1830
F15.91304347826087
I0
tp40
a(I18
I5
I100
I1622
F16.22
I0
tp41
a(I19
I6
I98
I1588
F16.20408163265306
I0
tp42
aa(lp43
(I0
I32
I184
I3027
F16.45108695652174
I0
tp44
a(I1
I26
I198
I3270
F16.515151515151516
I0
tp45
a(I2
I20
I178
I2948
F16.56179775280899
I0
tp46
a(I3
I41
I203
I3379
F16.645320197044335
I0
tp47
a(I4
I33
I206
I3431
F16.655339805825243
I0
tp48
a(I5
I42
I201
I3366
F16.746268656716417
I1
tp49
a(I6
I28
I190
I3136
F16.50526315789474
I1
tp50
a(I7
I39
I209
I3489
F16.69377990430622
I0
tp51
a(I8
I42
I208
I3510
F16.875
I0
tp52
a(I9
I37
I196
I3298
F16.8265306122449
I0
tp53
a(I10
I30
I193
I3240
F16.787564766839377
I0
tp54
a(I11
I21
I174
I2908
F16.71264367816092
I0
tp55
a(I12
I27
I197
I3270
F16.598984771573605
I1
tp56
a(I13
I38
I204
I3395
F16.642156862745097
I0
tp57
a(I14
I44
I213
I3565
F16.737089201877936
I0
tp58
a(I15
I40
I191
I3247
F17.0
I0
tp59
a(I16
I34
I208
I3446
F16.567307692307693
I0
tp60
a(I17
I30
I186
I3115
F16.747311827956988
I0
tp61
a(I18
I39
I201
I3405
F16.940298507462686
I0
tp62
a(I19
I46
I214
I3569
F16.677570093457945
I0
tp63
aa(lp64
(I0
I76
I297
I5005
F16.85185185185185
I0
tp65
a(I1
I79
I298
I5031
F16.88255033557047
I1
tp66
a(I2
I63
I295
I4963
F16.82372881355932
I1
tp67
a(I3
I93
I318
I5443
F17.11635220125786
I0
tp68
a(I4
I72
I284
I4810
F16.93661971830986
I0
tp69
a(I5
I52
I282
I4704
F16.680851063829788
I0
tp70
a(I6
I46
I251
I4173
F16.625498007968126
I0
tp71
a(I7
I57
I303
I5020
F16.567656765676567
I3
tp72
a(I8
I57
I271
I4521
F16.682656826568266
I0
tp73
a(I9
I98
I313
I5396
F17.23961661341853
I0
tp74
a(I10
I63
I306
I5119
F16.72875816993464
I0
tp75
a(I11
I72
I271
I4614
F17.025830258302584
I0
tp76
a(I12
I84
I280
I4809
F17.175
I1
tp77
a(I13
I88
I294
I5014
F17.05442176870748
I1
tp78
a(I14
I85
I298
I5098
F17.107382550335572
I1
tp79
a(I15
I115
I322
I5510
F17.111801242236027
I0
tp80
a(I16
I69
I269
I4479
F16.650557620817843
I1
tp81
a(I17
I65
I271
I4573
F16.874538745387454
I1
tp82
a(I18
I79
I304
I5180
F17.039473684210527
I0
tp83
a(I19
I73
I280
I4808
F17.17142857142857
I0
tp84
aa(lp85
(I0
I133
I370
I6508
F17.589189189189188
I0
tp86
a(I1
I130
I386
I6703
F17.365284974093264
I0
tp87
a(I2
I156
I436
I7590
F17.408256880733944
I0
tp88
a(I3
I125
I377
I6571
F17.42970822281167
I0
tp89
a(I4
I126
I370
I6413
F17.332432432432434
I1
tp90
a(I5
I128
I381
I6649
F17.451443569553806
I0
tp91
a(I6
I133
I380
I6508
F17.126315789473683
I0
tp92
a(I7
I139
I364
I6405
F17.596153846153847
I0
tp93
a(I8
I154
I408
I7124
F17.46078431372549
I0
tp94
a(I9
I115
I390
I6650
F17.05128205128205
I0
tp95
a(I10
I146
I387
I6770
F17.493540051679588
I2
tp96
a(I11
I126
I375
I6516
F17.376
I3
tp97
a(I12
I147
I395
I6919
F17.51645569620253
I2
tp98
a(I13
I117
I391
I6685
F17.097186700767264
I0
tp99
a(I14
I115
I377
I6498
F17.23607427055703
I0
tp100
a(I15
I106
I352
I5968
F16.954545454545453
I0
tp101
a(I16
I115
I387
I6663
F17.217054263565892
I1
tp102
a(I17
I96
I341
I5825
F17.082111436950147
I0
tp103
a(I18
I119
I365
I6272
F17.183561643835617
I0
tp104
a(I19
I149
I406
I7043
F17.34729064039409
I0
tp105
aa(lp106
(I0
I218
I493
I8664
F17.574036511156187
I1
tp107
a(I1
I209
I485
I8773
F18.088659793814433
I1
tp108
a(I2
I234
I486
I8723
F17.948559670781894
I0
tp109
a(I3
I191
I459
I8093
F17.6318082788671
I1
tp110
a(I4
I231
I496
I8815
F17.77217741935484
I0
tp111
a(I5
I207
I479
I8421
F17.580375782881003
I1
tp112
a(I6
I219
I464
I8252
F17.78448275862069
I0
tp113
a(I7
I208
I468
I8299
F17.732905982905983
I1
tp114
a(I8
I254
I511
I9206
F18.015655577299412
I0
tp115
a(I9
I207
I465
I8241
F17.72258064516129
I2
tp116
a(I10
I228
I500
I8836
F17.672
I0
tp117
a(I11
I224
I508
I9012
F17.74015748031496
I3
tp118
a(I12
I215
I487
I8685
F17.833675564681723
I0
tp119
a(I13
I188
I498
I8751
F17.572289156626507
I3
tp120
a(I14
I195
I488
I8493
F17.403688524590162
I0
tp121
a(I15
I223
I494
I8945
F18.10728744939271
I0
tp122
a(I16
I197
I479
I8451
F17.643006263048015
I0
tp123
a(I17
I240
I492
I8759
F17.802845528455286
I0
tp124
a(I18
I236
I514
I9071
F17.647859922178988
I0
tp125
a(I19
I216
I489
I8667
F17.7239263803681
I1
tp126
aa(lp127
(I0
I359
I581
I10787
F18.566265060240966
I2
tp128
a(I1
I363
I619
I11411
F18.434571890145396
I1
tp129
a(I2
I410
I643
I12044
F18.730948678071538
I3
tp130
a(I3
I307
I561
I10226
F18.228163992869874
I0
tp131
a(I4
I276
I539
I9645
F17.894248608534323
I1
tp132
a(I5
I352
I570
I10761
F18.878947368421052
I2
tp133
a(I6
I315
I582
I10748
F18.467353951890033
I0
tp134
a(I7
I326
I557
I10187
F18.289048473967686
I0
tp135
a(I8
I239
I557
I9888
F17.752244165170556
I1
tp136
a(I9
I302
I555
I10123
F18.23963963963964
I0
tp137
a(I10
I309
I550
I10065
F18.3
I1
tp138
a(I11
I281
I577
I10356
F17.94800693240901
I2
tp139
a(I12
I297
I563
I10232
F18.174067495559502
I1
tp140
a(I13
I355
I580
I10834
F18.679310344827588
I0
tp141
a(I14
I356
I605
I11024
F18.221487603305786
I1
tp142
a(I15
I354
I575
I10779
F18.74608695652174
I4
tp143
a(I16
I269
I562
I10124
F18.01423487544484
I2
tp144
a(I17
I320
I587
I10672
F18.180579216354346
I0
tp145
a(I18
I291
I563
I10196
F18.1101243339254
I2
tp146
a(I19
I259
I520
I9483
F18.236538461538462
I2
tp147
aa(lp148
(I0
I378
I651
I12015
F18.456221198156683
I2
tp149
a(I1
I473
I663
I12743
F19.22021116138763
I1
tp150
a(I2
I460
I652
I12440
F19.079754601226995
I1
tp151
a(I3
I468
I638
I12384
F19.41065830721003
I0
tp152
a(I4
I523
I696
I13446
F19.31896551724138
I1
tp153
a(I5
I502
I679
I13033
F19.19440353460972
I1
tp154
a(I6
I522
I685
I13257
F19.353284671532847
I2
tp155
a(I7
I537
I702
I13667
F19.46866096866097
I1
tp156
a(I8
I437
I644
I12379
F19.222049689440993
I1
tp157
a(I9
I617
I740
I14716
F19.886486486486486
I1
tp158
a(I10
I398
I612
I11499
F18.78921568627451
I0
tp159
a(I11
I538
I694
I13239
F19.076368876080693
I0
tp160
a(I12
I536
I696
I13460
F19.339080459770116
I2
tp161
a(I13
I410
I640
I11787
F18.4171875
I2
tp162
a(I14
I520
I679
I12949
F19.070692194403534
I1
tp163
a(I15
I477
I658
I12363
F18.788753799392097
I0
tp164
a(I16
I411
I639
I11911
F18.640062597809077
I0
tp165
a(I17
I473
I673
I12577
F18.687964338781576
I1
tp166
a(I18
I541
I719
I13830
F19.235048678720446
I1
tp167
a(I19
I501
I655
I12591
F19.22290076335878
I0
tp168
aa(lp169
(I0
I631
I762
I15210
F19.96062992125984
I2
tp170
a(I1
I658
I772
I15268
F19.77720207253886
I0
tp171
a(I2
I716
I790
I15984
F20.232911392405065
I0
tp172
a(I3
I751
I807
I16460
F20.396530359355637
I2
tp173
a(I4
I685
I766
I15281
F19.949086161879894
I1
tp174
a(I5
I669
I765
I15060
F19.686274509803923
I2
tp175
a(I6
I670
I795
I15764
F19.82893081761006
I4
tp176
a(I7
I666
I763
I15275
F20.019659239842728
I1
tp177
a(I8
I672
I749
I15023
F20.057409879839785
I2
tp178
a(I9
I656
I768
I15509
F20.194010416666668
I1
tp179
a(I10
I569
I727
I14174
F19.49656121045392
I0
tp180
a(I11
I698
I780
I15780
F20.23076923076923
I2
tp181
a(I12
I813
I821
I17020
F20.730816077953715
I0
tp182
a(I13
I674
I791
I16032
F20.268015170670036
I1
tp183
a(I14
I642
I789
I15583
F19.750316856780735
I4
tp184
a(I15
I708
I768
I15322
F19.950520833333332
I3
tp185
a(I16
I614
I769
I15186
F19.747724317295187
I0
tp186
a(I17
I733
I810
I16299
F20.122222222222224
I0
tp187
a(I18
I705
I800
I16320
F20.4
I2
tp188
a(I19
I659
I768
I15284
F19.901041666666668
I2
tp189
aa(lp190
(I0
I895
I849
I17808
F20.975265017667844
I1
tp191
a(I1
I789
I837
I16904
F20.195937873357227
I5
tp192
a(I2
I797
I835
I16934
F20.280239520958084
I2
tp193
a(I3
I1057
I902
I20637
F22.879157427937916
I1
tp194
a(I4
I903
I867
I18595
F21.447520184544405
I3
tp195
a(I5
I846
I853
I17397
F20.395076201641267
I4
tp196
a(I6
I904
I875
I18580
F21.234285714285715
I2
tp197
a(I7
I926
I877
I18418
F21.001140250855187
I1
tp198
a(I8
I765
I831
I17169
F20.660649819494584
I1
tp199
a(I9
I828
I796
I16790
F21.092964824120603
I1
tp200
a(I10
I764
I833
I16907
F20.296518607442977
I1
tp201
a(I11
I932
I873
I18411
F21.0893470790378
I3
tp202
a(I12
I1128
I924
I21193
F22.936147186147185
I0
tp203
a(I13
I798
I840
I17021
F20.26309523809524
I0
tp204
a(I14
I948
I868
I18982
F21.868663594470046
I1
tp205
a(I15
I824
I858
I17584
F20.494172494172496
I2
tp206
a(I16
I1039
I889
I19457
F21.886389201349832
I0
tp207
a(I17
I883
I873
I18256
F20.91179839633448
I0
tp208
a(I18
I949
I882
I18861
F21.3843537414966
I1
tp209
a(I19
I1020
I905
I19609
F21.667403314917127
I3
tp210
aa(lp211
(I0
I1222
I968
I22198
F22.931818181818183
I2
tp212
a(I1
I1292
I1011
I23567
F23.310583580613255
I3
tp213
a(I2
I1153
I959
I21123
F22.02606882168926
I4
tp214
a(I3
I1115
I942
I21325
F22.638004246284503
I2
tp215
a(I4
I1098
I926
I20876
F22.54427645788337
I0
tp216
a(I5
I1011
I924
I20070
F21.72077922077922
I1
tp217
a(I6
I1158
I980
I21655
F22.096938775510203
I4
tp218
a(I7
I1206
I962
I22423
F23.30873180873181
I3
tp219
a(I8
I1153
I932
I21514
F23.083690987124463
I1
tp220
a(I9
I1300
I977
I22765
F23.300921187308084
I0
tp221
a(I10
I1159
I960
I21419
F22.311458333333334
I2
tp222
a(I11
I1219
I960
I22110
F23.03125
I1
tp223
a(I12
I1166
I960
I21454
F22.347916666666666
I1
tp224
a(I13
I1223
I952
I22172
F23.289915966386555
I1
tp225
a(I14
I1106
I933
I20509
F21.981779206859592
I1
tp226
a(I15
I1154
I962
I21498
F22.347193347193347
I4
tp227
a(I16
I1157
I956
I21450
F22.43723849372385
I3
tp228
a(I17
I1216
I948
I21481
F22.65928270042194
I3
tp229
a(I18
I1224
I961
I22272
F23.17585848074922
I2
tp230
a(I19
I1132
I952
I21235
F22.305672268907564
I1
tp231
aa(lp232
(I0
I1539
I1080
I27681
F25.630555555555556
I1
tp233
a(I1
I1512
I1042
I26666
F25.591170825335894
I3
tp234
a(I2
I1332
I1019
I24038
F23.589793915603533
I0
tp235
a(I3
I1393
I1047
I25659
F24.507163323782233
I3
tp236
a(I4
I1492
I1040
I26449
F25.431730769230768
I2
tp237
a(I5
I1368
I1014
I24576
F24.236686390532544
I1
tp238
a(I6
I1365
I1018
I24234
F23.80550098231827
I4
tp239
a(I7
I1758
I1112
I34392
F30.928057553956833
I3
tp240
a(I8
I1382
I1026
I24247
F23.632553606237817
I3
tp241
a(I9
I1554
I1049
I29268
F27.90085795996187
I4
tp242
a(I10
I1176
I975
I21887
F22.448205128205128
I1
tp243
a(I11
I1426
I1027
I25016
F24.358325219084712
I4
tp244
a(I12
I1569
I1096
I27784
F25.35036496350365
I2
tp245
a(I13
I1551
I1046
I26536
F25.369024856596557
I1
tp246
a(I14
I1483
I1023
I25507
F24.933528836754643
I2
tp247
a(I15
I1422
I1024
I25994
F25.384765625
I3
tp248
a(I16
I1522
I1053
I27730
F26.334283000949668
I2
tp249
a(I17
I1377
I1027
I25350
F24.68354430379747
I1
tp250
a(I18
I1476
I1040
I26668
F25.642307692307693
I1
tp251
a(I19
I1485
I1050
I26028
F24.78857142857143
I0
tp252
aa(lp253
(I0
I1700
I1113
I29861
F26.829290206648697
I2
tp254
a(I1
I1836
I1167
I42416
F36.34618680377035
I1
tp255
a(I2
I1782
I1153
I33900
F29.401561144839548
I3
tp256
a(I3
I1803
I1151
I37106
F32.2380538662033
I0
tp257
a(I4
I1850
I1182
I46952
F39.722504230118446
I4
tp258
a(I5
I1873
I1170
I38982
F33.31794871794872
I3
tp259
a(I6
I1742
I1124
I34440
F30.640569395017792
I1
tp260
a(I7
I1763
I1152
I34886
F30.28298611111111
I7
tp261
a(I8
I1643
I1121
I30489
F27.198037466547724
I3
tp262
a(I9
I1666
I1103
I32580
F29.537624660018132
I4
tp263
a(I10
I1665
I1124
I32670
F29.065836298932386
I4
tp264
a(I11
I1785
I1138
I34114
F29.977152899824254
I0
tp265
a(I12
I1939
I1182
I39713
F33.59813874788494
I2
tp266
a(I13
I1741
I1134
I33419
F29.470017636684304
I2
tp267
a(I14
I1752
I1138
I34347
F30.18189806678383
I1
tp268
a(I15
I1694
I1109
I31868
F28.735798016230838
I2
tp269
a(I16
I1698
I1110
I32199
F29.008108108108107
I0
tp270
a(I17
I1660
I1128
I30768
F27.27659574468085
I0
tp271
a(I18
I1848
I1156
I37487
F32.42820069204152
I3
tp272
a(I19
I1768
I1143
I35648
F31.188101487314086
I3
tp273
aa(lp274
(I0
I1943
I1249
I61135
F48.94715772618095
I2
tp275
a(I1
I1918
I1226
I65820
F53.686786296900486
I4
tp276
a(I2
I1863
I1180
I40852
F34.62033898305085
I3
tp277
a(I3
I1859
I1188
I43021
F36.21296296296296
I3
tp278
a(I4
I1952
I1217
I41198
F33.85209531635169
I2
tp279
a(I5
I1871
I1201
I44434
F36.99750208159867
I2
tp280
a(I6
I1827
I1184
I54368
F45.91891891891892
I2
tp281
a(I7
I1811
I1183
I48871
F41.311073541842774
I3
tp282
a(I8
I2039
I1256
I59000
F46.97452229299363
I2
tp283
a(I9
I1998
I1244
I59109
F47.515273311897104
I0
tp284
a(I10
I1988
I1211
I41933
F34.626754748142034
I3
tp285
a(I11
I1817
I1151
I36343
F31.575152041702868
I2
tp286
a(I12
I1929
I1185
I47891
F40.414345991561184
I2
tp287
a(I13
I1991
I1223
I45071
F36.852820932134094
I3
tp288
a(I14
I2001
I1256
I62751
F49.9609872611465
I1
tp289
a(I15
I1924
I1210
I50463
F41.70495867768595
I1
tp290
a(I16
I1877
I1182
I45778
F38.72927241962775
I2
tp291
a(I17
I1906
I1204
I52364
F43.49169435215947
I8
tp292
a(I18
I1909
I1232
I63538
F51.57305194805195
I1
tp293
a(I19
I1853
I1156
I36996
F32.003460207612456
I2
tp294
aa(lp295
(I0
I1951
I1280
I93195
F72.80859375
I2
tp296
a(I1
I1906
I1239
I74578
F60.19209039548023
I2
tp297
a(I2
I1838
I1227
I69551
F56.68378158109209
I3
tp298
a(I3
I1891
I1265
I97128
F76.78102766798419
I6
tp299
a(I4
I1960
I1249
I74723
F59.826261008807045
I3
tp300
a(I5
I1998
I1272
I66155
F52.00864779874214
I3
tp301
a(I6
I2074
I1289
I81750
F63.42125678820791
I2
tp302
a(I7
I1945
I1281
I100395
F78.37236533957845
I4
tp303
a(I8
I1950
I1259
I75169
F59.70532168387609
I4
tp304
a(I9
I2060
I1279
I63408
F49.576231430805315
I3
tp305
a(I10
I2035
I1252
I58588
F46.79552715654952
I5
tp306
a(I11
I1928
I1227
I74155
F60.4360228198859
I3
tp307
a(I12
I2005
I1274
I75916
F59.588697017268444
I3
tp308
a(I13
I1924
I1202
I67743
F56.3585690515807
I7
tp309
a(I14
I1888
I1236
I77711
F62.87297734627832
I3
tp310
a(I15
I1927
I1251
I94073
F75.1982414068745
I5
tp311
a(I16
I2066
I1294
I64077
F49.51854714064915
I1
tp312
a(I17
I1947
I1229
I67494
F54.91781936533767
I3
tp313
a(I18
I1965
I1257
I76448
F60.81782020684169
I3
tp314
a(I19
I2023
I1306
I83697
F64.08652373660031
I3
tp315
aa(lp316
(I0
I2010
I1306
I100210
F76.73047473200613
I3
tp317
a(I1
I1868
I1265
I95580
F75.55731225296442
I4
tp318
a(I2
I2006
I1301
I82933
F63.745580322828594
I1
tp319
a(I3
I2058
I1320
I86356
F65.42121212121212
I3
tp320
a(I4
I1955
I1317
I125716
F95.45634016704632
I6
tp321
a(I5
I1950
I1300
I100762
F77.50923076923077
I7
tp322
a(I6
I1970
I1310
I104613
F79.85725190839695
I3
tp323
a(I7
I1933
I1289
I104431
F81.01706749418153
I3
tp324
a(I8
I2005
I1266
I71725
F56.65481832543444
I1
tp325
a(I9
I1901
I1287
I101360
F78.75679875679876
I4
tp326
a(I10
I1895
I1267
I92618
F73.10023677979478
I2
tp327
a(I11
I1855
I1280
I127288
F99.44375
I4
tp328
a(I12
I1926
I1315
I110783
F84.24562737642586
I3
tp329
a(I13
I1959
I1273
I97189
F76.34642576590731
I5
tp330
a(I14
I1901
I1269
I104548
F82.38613081166272
I3
tp331
a(I15
I1978
I1295
I94176
F72.72277992277992
I2
tp332
a(I16
I1996
I1310
I101906
F77.79083969465648
I4
tp333
a(I17
I1884
I1304
I126686
F97.15184049079754
I1
tp334
a(I18
I1955
I1273
I89937
F70.6496465043205
I2
tp335
a(I19
I1936
I1270
I95854
F75.4755905511811
I6
tp336
aa(lp337
(I0
I1936
I1331
I123722
F92.954169797145
I6
tp338
a(I1
I1942
I1306
I118354
F90.62327718223584
I4
tp339
a(I2
I1911
I1313
I141965
F108.12261995430312
I3
tp340
a(I3
I2000
I1325
I120099
F90.64075471698114
I1
tp341
a(I4
I1993
I1309
I103520
F79.08326967150497
I5
tp342
a(I5
I1901
I1283
I124305
F96.88620420888543
I2
tp343
a(I6
I1788
I1286
I147843
F114.96345256609642
I1
tp344
a(I7
I1943
I1298
I110670
F85.26194144838213
I3
tp345
a(I8
I2025
I1334
I106330
F79.70764617691154
I6
tp346
a(I9
I1929
I1289
I110306
F85.57486423584174
I7
tp347
a(I10
I1877
I1267
I115627
F91.26045777426992
I4
tp348
a(I11
I1986
I1349
I140465
F104.12527798369162
I1
tp349
a(I12
I1943
I1296
I107327
F82.81404320987654
I7
tp350
a(I13
I1939
I1320
I125447
F95.03560606060606
I4
tp351
a(I14
I1847
I1293
I146101
F112.9938128383604
I0
tp352
a(I15
I1982
I1321
I127391
F96.43527630582892
I1
tp353
a(I16
I1955
I1297
I99154
F76.44872783346183
I4
tp354
a(I17
I1959
I1305
I109016
F83.53716475095786
I3
tp355
a(I18
I1860
I1286
I132117
F102.7348367029549
I1
tp356
a(I19
I1896
I1294
I130482
F100.83616692426584
I1
tp357
aa(lp358
(I0
I1959
I1370
I152758
F111.5021897810219
I3
tp359
a(I1
I1890
I1292
I133299
F103.17260061919505
I2
tp360
a(I2
I1938
I1350
I138984
F102.95111111111112
I3
tp361
a(I3
I1846
I1306
I146114
F111.87901990811639
I4
tp362
a(I4
I1838
I1302
I146120
F112.2273425499232
I6
tp363
a(I5
I1875
I1315
I150383
F114.35969581749049
I2
tp364
a(I6
I1855
I1315
I157096
F119.46463878326996
I5
tp365
a(I7
I1893
I1304
I153712
F117.87730061349693
I3
tp366
a(I8
I1846
I1301
I141170
F108.50883935434281
I3
tp367
a(I9
I1864
I1277
I131670
F103.10884886452624
I2
tp368
a(I10
I1998
I1320
I123275
F93.39015151515152
I5
tp369
a(I11
I1930
I1329
I138165
F103.96162528216705
I0
tp370
a(I12
I1877
I1300
I134949
F103.80692307692307
I2
tp371
a(I13
I1952
I1331
I125773
F94.49511645379414
I5
tp372
a(I14
I1950
I1336
I128831
F96.43038922155688
I2
tp373
a(I15
I1932
I1339
I121948
F91.0739357729649
I8
tp374
a(I16
I1837
I1309
I147817
F112.92360580595874
I2
tp375
a(I17
I1869
I1309
I141757
F108.29411764705883
I3
tp376
a(I18
I1809
I1305
I155015
F118.78544061302682
I2
tp377
a(I19
I2031
I1350
I136873
F101.38740740740741
I3
tp378
aa(lp379
(I0
I1795
I1338
I175275
F130.99775784753362
I7
tp380
a(I1
I1773
I1333
I174027
F130.55288822205551
I0
tp381
a(I2
I1912
I1357
I163277
F120.32203389830508
I2
tp382
a(I3
I1902
I1328
I157498
F118.59789156626506
I6
tp383
a(I4
I1877
I1330
I151707
F114.06541353383459
I1
tp384
a(I5
I1855
I1336
I158374
F118.5434131736527
I5
tp385
a(I6
I1672
I1353
I195583
F144.5550628233555
I71
tp386
a(I7
I1807
I1342
I166855
F124.33308494783904
I8
tp387
a(I8
I1938
I1334
I142812
F107.05547226386807
I3
tp388
a(I9
I1734
I1306
I173569
F132.90122511485453
I7
tp389
a(I10
I1838
I1321
I163848
F124.0333080999243
I5
tp390
a(I11
I1781
I1322
I170024
F128.61119515885022
I5
tp391
a(I12
I1742
I1298
I172130
F132.61171032357473
I2
tp392
a(I13
I1831
I1346
I170859
F126.93833580980683
I3
tp393
a(I14
I1648
I1316
I190422
F144.69756838905775
I3
tp394
a(I15
I1746
I1327
I176301
F132.85681989449887
I1
tp395
a(I16
I1742
I1301
I165497
F127.2075326671791
I8
tp396
a(I17
I1767
I1313
I180015
F137.1020563594821
I20
tp397
a(I18
I1759
I1312
I176631
F134.62728658536585
I4
tp398
a(I19
I1730
I1294
I167745
F129.63292117465224
I2
tp399
aa(lp400
(I0
I1729
I1336
I187151
F140.08308383233532
I43
tp401
a(I1
I1702
I1306
I187835
F143.82465543644716
I66
tp402
a(I2
I1655
I1325
I187111
F141.2158490566038
I56
tp403
a(I3
I1786
I1377
I188605
F136.9680464778504
I46
tp404
a(I4
I1672
I1337
I184774
F138.20044876589378
I54
tp405
a(I5
I1648
I1366
I200548
F146.81405563689606
I57
tp406
a(I6
I1687
I1317
I191806
F145.63857251328778
I48
tp407
a(I7
I1660
I1316
I184975
F140.55851063829786
I56
tp408
a(I8
I1623
I1307
I182504
F139.63580719204285
I51
tp409
a(I9
I1716
I1312
I179296
F136.65853658536585
I27
tp410
a(I10
I1624
I1336
I200752
F150.26347305389223
I54
tp411
a(I11
I1579
I1322
I193752
F146.55975794251134
I69
tp412
a(I12
I1597
I1310
I188519
F143.90763358778625
I96
tp413
a(I13
I1705
I1320
I181385
F137.41287878787878
I12
tp414
a(I14
I1764
I1362
I187306
F137.52276064610865
I1
tp415
a(I15
I1663
I1313
I187559
F142.84767707539984
I41
tp416
a(I16
I1795
I1316
I169111
F128.50379939209728
I27
tp417
a(I17
I1656
I1347
I198400
F147.29027468448405
I106
tp418
a(I18
I1674
I1331
I197627
F148.48009015777612
I66
tp419
a(I19
I1692
I1342
I191413
F142.63263785394932
I24
tp420
aa(lp421
(I0
I1451
I1353
I223705
F165.339985218034
I149
tp422
a(I1
I1638
I1331
I196146
F147.36739293764086
I126
tp423
a(I2
I1662
I1334
I196306
F147.15592203898052
I113
tp424
a(I3
I1699
I1318
I193417
F146.7503793626707
I84
tp425
a(I4
I1706
I1316
I190309
F144.61170212765958
I50
tp426
a(I5
I1566
I1346
I212614
F157.9598811292719
I153
tp427
a(I6
I1504
I1353
I209473
F154.8211382113821
I198
tp428
a(I7
I1554
I1315
I202312
F153.84942965779467
I159
tp429
a(I8
I1708
I1374
I198940
F144.78893740902475
I107
tp430
a(I9
I1595
I1328
I205379
F154.65286144578315
I127
tp431
a(I10
I1570
I1337
I202314
F151.3193717277487
I163
tp432
a(I11
I1604
I1368
I196731
F143.80921052631578
I166
tp433
a(I12
I1757
I1371
I186840
F136.2800875273523
I82
tp434
a(I13
I1620
I1351
I203195
F150.40340488527016
I90
tp435
a(I14
I1471
I1353
I217228
F160.5528455284553
I201
tp436
a(I15
I1638
I1347
I193936
F143.97624350408316
I131
tp437
a(I16
I1654
I1353
I196868
F145.50480413895048
I102
tp438
a(I17
I1638
I1319
I186711
F141.55496588324488
I141
tp439
a(I18
I1609
I1352
I205401
F151.92381656804733
I111
tp440
a(I19
I1626
I1349
I203375
F150.75982209043735
I55
tp441
aa.