(lp0
(lp1
(I0
I1
I6
I100
F16.666666666666668
I0
tp2
a(I1
I0
I7
I109
F15.571428571428571
I0
tp3
a(I2
I0
I11
I172
F15.636363636363637
I0
tp4
a(I3
I0
I12
I186
F15.5
I0
tp5
a(I4
I0
I12
I188
F15.666666666666666
I0
tp6
a(I5
I1
I7
I116
F16.571428571428573
I0
tp7
a(I6
I0
I12
I188
F15.666666666666666
I0
tp8
a(I7
I1
I13
I211
F16.23076923076923
I0
tp9
a(I8
I0
I8
I128
F16.0
I0
tp10
a(I9
I0
I12
I195
F16.25
I0
tp11
aa(lp12
(I0
I13
I96
I1595
F16.614583333333332
I0
tp13
a(I1
I14
I91
I1490
F16.373626373626372
I0
tp14
a(I2
I11
I93
I1504
F16.172043010752688
I0
tp15
a(I3
I10
I94
I1522
F16.19148936170213
I0
tp16
a(I4
I12
I101
I1629
F16.128712871287128
I0
tp17
a(I5
I20
I100
I1643
F16.43
I0
tp18
a(I6
I6
I82
I1329
F16.20731707317073
I0
tp19
a(I7
I10
I94
I1537
F16.351063829787233
I0
tp20
a(I8
I12
I103
I1682
F16.33009708737864
I0
tp21
a(I9
I14
I110
I1823
F16.572727272727274
I0
tp22
aa(lp23
(I0
I27
I187
I3089
F16.518716577540108
I0
tp24
a(I1
I46
I213
I3599
F16.896713615023476
I0
tp25
a(I2
I30
I206
I3428
F16.640776699029125
I1
tp26
a(I3
I38
I197
I3299
F16.746192893401016
I0
tp27
a(I4
I41
I190
I3163
F16.647368421052633
I0
tp28
a(I5
I41
I190
I3144
F16.54736842105263
I0
tp29
a(I6
I14
I176
I2834
F16.102272727272727
I1
tp30
a(I7
I30
I186
I3055
F16.4247311827957
I0
tp31
a(I8
I28
I161
I2657
F16.503105590062113
I2
tp32
a(I9
I47
I205
I3430
F16.73170731707317
I4
tp33
aa(lp34
(I0
I66
I291
I4795
F16.477663230240548
I0
tp35
a(I1
I99
I305
I5210
F17.081967213114755
I0
tp36
a(I2
I86
I281
I4858
F17.28825622775801
I2
tp37
a(I3
I84
I304
I5159
F16.970394736842106
I1
tp38
a(I4
I87
I302
I5048
F16.71523178807947
I0
tp39
a(I5
I89
I305
I5191
F17.01967213114754
I1
tp40
a(I6
I75
I290
I4843
F16.7
I1
tp41
a(I7
I83
I290
I4916
F16.951724137931034
I0
tp42
a(I8
I93
I301
I5135
F17.059800664451828
I0
tp43
a(I9
I69
I296
I4940
F16.68918918918919
I0
tp44
aa(lp45
(I0
I134
I393
I6712
F17.078880407124682
I0
tp46
a(I1
I119
I378
I6369
F16.849206349206348
I1
tp47
a(I2
I176
I414
I7278
F17.579710144927535
I0
tp48
a(I3
I119
I364
I6217
F17.07967032967033
I1
tp49
a(I4
I146
I383
I6639
F17.334203655352482
I1
tp50
a(I5
I161
I393
I6890
F17.53180661577608
I0
tp51
a(I6
I115
I394
I6761
F17.15989847715736
I0
tp52
a(I7
I148
I404
I6994
F17.31188118811881
I0
tp53
a(I8
I133
I397
I6856
F17.269521410579344
I0
tp54
a(I9
I121
I381
I6558
F17.212598425196852
I3
tp55
aa(lp56
(I0
I178
I437
I7638
F17.47826086956522
I0
tp57
a(I1
I326
I518
I9425
F18.194980694980696
I2
tp58
a(I2
I263
I511
I9134
F17.874755381604697
I1
tp59
a(I3
I207
I484
I8333
F17.21694214876033
I1
tp60
a(I4
I278
I496
I8871
F17.885080645161292
I2
tp61
a(I5
I220
I473
I8439
F17.841437632135307
I2
tp62
a(I6
I192
I440
I7661
F17.411363636363635
I1
tp63
a(I7
I325
I525
I9532
F18.156190476190478
I1
tp64
a(I8
I216
I483
I8513
F17.625258799171842
I1
tp65
a(I9
I259
I479
I8512
F17.77035490605428
I0
tp66
aa(lp67
(I0
I402
I584
I10716
F18.34931506849315
I3
tp68
a(I1
I379
I565
I10403
F18.412389380530975
I2
tp69
a(I2
I388
I595
I10930
F18.369747899159663
I1
tp70
a(I3
I378
I566
I10458
F18.47703180212014
I2
tp71
a(I4
I372
I577
I10589
F18.351819757365686
I0
tp72
a(I5
I331
I551
I10017
F18.17967332123412
I0
tp73
a(I6
I312
I557
I9979
F17.915619389587075
I2
tp74
a(I7
I275
I553
I9899
F17.900542495479204
I3
tp75
a(I8
I364
I591
I10794
F18.263959390862944
I0
tp76
a(I9
I367
I593
I10812
F18.232715008431704
I0
tp77
aa(lp78
(I0
I567
I686
I13186
F19.221574344023324
I2
tp79
a(I1
I577
I688
I13276
F19.296511627906977
I1
tp80
a(I2
I554
I693
I13425
F19.372294372294373
I1
tp81
a(I3
I447
I660
I12278
F18.6030303030303
I2
tp82
a(I4
I474
I673
I12535
F18.62555720653789
I0
tp83
a(I5
I487
I667
I12633
F18.940029985007495
I3
tp84
a(I6
I543
I702
I13033
F18.565527065527064
I1
tp85
a(I7
I598
I709
I13525
F19.076163610719323
I0
tp86
a(I8
I504
I684
I12768
F18.666666666666668
I3
tp87
a(I9
I681
I729
I14526
F19.925925925925927
I2
tp88
aa(lp89
(I0
I674
I758
I14694
F19.385224274406333
I1
tp90
a(I1
I685
I777
I15261
F19.64092664092664
I1
tp91
a(I2
I754
I795
I15695
F19.742138364779873
I0
tp92
a(I3
I811
I807
I16392
F20.312267657992564
I4
tp93
a(I4
I570
I701
I13515
F19.27960057061341
I3
tp94
a(I5
I694
I779
I15162
F19.463414634146343
I1
tp95
a(I6
I704
I759
I14880
F19.604743083003953
I1
tp96
a(I7
I646
I743
I14278
F19.216689098250338
I1
tp97
a(I8
I727
I792
I15490
F19.55808080808081
I4
tp98
a(I9
I773
I800
I15779
F19.72375
I2
tp99
aa(lp100
(I0
I1165
I920
I19922
F21.654347826086955
I0
tp101
a(I1
I1001
I895
I18565
F20.743016759776538
I2
tp102
a(I2
I1124
I897
I19339
F21.55964325529543
I1
tp103
a(I3
I1006
I890
I18685
F20.99438202247191
I3
tp104
a(I4
I926
I865
I17575
F20.31791907514451
I0
tp105
a(I5
I1032
I873
I18441
F21.123711340206185
I1
tp106
a(I6
I952
I832
I17198
F20.670673076923077
I0
tp107
a(I7
I1012
I878
I18250
F20.785876993166287
I2
tp108
a(I8
I942
I834
I17759
F21.293764988009592
I0
tp109
a(I9
I922
I874
I17946
F20.533180778032037
I2
tp110
aa(lp111
(I0
I1182
I962
I20755
F21.574844074844076
I1
tp112
a(I1
I1253
I948
I20748
F21.88607594936709
I3
tp113
a(I2
I1223
I949
I21791
F22.962065331928347
I2
tp114
a(I3
I1269
I968
I22131
F22.862603305785125
I3
tp115
a(I4
I1390
I976
I23050
F23.616803278688526
I2
tp116
a(I5
I1104
I919
I19335
F21.03917301414581
I0
tp117
a(I6
I1315
I985
I21996
F22.330964467005074
I1
tp118
a(I7
I1223
I961
I21390
F22.258064516129032
I1
tp119
a(I8
I1422
I995
I23064
F23.179899497487437
I3
tp120
a(I9
I1331
I975
I22007
F22.57128205128205
I3
tp121
aa(lp122
(I0
I1388
I1015
I22916
F22.57733990147783
I4
tp123
a(I1
I1662
I1089
I28430
F26.10651974288338
I0
tp124
a(I2
I1647
I1084
I28029
F25.8570110701107
I5
tp125
a(I3
I1488
I1031
I25093
F24.33850630455868
I3
tp126
a(I4
I1468
I1008
I24205
F24.012896825396826
I2
tp127
a(I5
I1489
I1022
I24594
F24.06457925636008
I2
tp128
a(I6
I1564
I1049
I25870
F24.661582459485224
I7
tp129
a(I7
I1648
I1070
I30045
F28.07943925233645
I2
tp130
a(I8
I1516
I1064
I28101
F26.410714285714285
I7
tp131
a(I9
I1516
I1038
I24934
F24.021194605009633
I5
tp132
aa(lp133
(I0
I1849
I1170
I43431
F37.12051282051282
I2
tp134
a(I1
I1773
I1119
I29536
F26.394995531724753
I1
tp135
a(I2
I1852
I1187
I56791
F47.844144903117105
I2
tp136
a(I3
I1833
I1181
I54011
F45.733276883996616
I3
tp137
a(I4
I1760
I1129
I32215
F28.534100974313553
I4
tp138
a(I5
I1933
I1175
I36642
F31.18468085106383
I3
tp139
a(I6
I1958
I1202
I49469
F41.15557404326123
I2
tp140
a(I7
I1686
I1120
I35460
F31.660714285714285
I1
tp141
a(I8
I1783
I1105
I33151
F30.000904977375566
I4
tp142
a(I9
I1906
I1194
I50345
F42.164991624790616
I1
tp143
aa(lp144
(I0
I1978
I1247
I73881
F59.246992782678426
I2
tp145
a(I1
I1932
I1202
I48094
F40.011647254575706
I3
tp146
a(I2
I1905
I1213
I64195
F52.92250618301731
I2
tp147
a(I3
I1841
I1188
I50798
F42.75925925925926
I4
tp148
a(I4
I2066
I1218
I43057
F35.35057471264368
I0
tp149
a(I5
I1942
I1200
I48625
F40.520833333333336
I0
tp150
a(I6
I1865
I1179
I54895
F46.56064461407973
I2
tp151
a(I7
I1946
I1200
I66279
F55.2325
I4
tp152
a(I8
I1918
I1174
I36326
F30.94207836456559
I3
tp153
a(I9
I1937
I1223
I49998
F40.88143908421913
I6
tp154
aa(lp155
(I0
I1939
I1253
I93954
F74.98324022346368
I4
tp156
a(I1
I1971
I1256
I84466
F67.25
I2
tp157
a(I2
I1886
I1226
I84802
F69.16965742251223
I4
tp158
a(I3
I1967
I1245
I64866
F52.10120481927711
I7
tp159
a(I4
I1951
I1282
I98047
F76.47971918876755
I1
tp160
a(I5
I1952
I1254
I97787
F77.98006379585327
I1
tp161
a(I6
I1951
I1284
I94070
F73.2632398753894
I2
tp162
a(I7
I1950
I1221
I64490
F52.81736281736282
I6
tp163
a(I8
I2003
I1257
I74149
F58.98886237072394
I1
tp164
a(I9
I2004
I1291
I85132
F65.9426800929512
I5
tp165
aa(lp166
(I0
I1888
I1231
I93146
F75.66693744922827
I4
tp167
a(I1
I1897
I1259
I113343
F90.02621127879269
I2
tp168
a(I2
I1982
I1294
I102912
F79.53013910355487
I3
tp169
a(I3
I1903
I1276
I108718
F85.20219435736676
I6
tp170
a(I4
I1963
I1263
I104795
F82.97307996832937
I5
tp171
a(I5
I1985
I1307
I123614
F94.57842387146137
I4
tp172
a(I6
I1939
I1239
I81069
F65.43099273607749
I2
tp173
a(I7
I1899
I1277
I109169
F85.48864526233359
I2
tp174
a(I8
I2005
I1274
I80657
F63.310047095761384
I1
tp175
a(I9
I1964
I1279
I103598
F80.99921813917123
I0
tp176
aa(lp177
(I0
I1894
I1281
I117679
F91.86494925839187
I5
tp178
a(I1
I1958
I1329
I127678
F96.07072987208427
I3
tp179
a(I2
I1868
I1282
I129409
F100.9430577223089
I3
tp180
a(I3
I1880
I1307
I144266
F110.37949502677888
I3
tp181
a(I4
I1848
I1272
I131168
F103.11949685534591
I2
tp182
a(I5
I2010
I1321
I112928
F85.48675246025738
I4
tp183
a(I6
I1817
I1275
I133549
F104.7443137254902
I2
tp184
a(I7
I1850
I1298
I140572
F108.29892141756548
I4
tp185
a(I8
I1919
I1317
I136858
F103.916476841306
I2
tp186
a(I9
I1905
I1310
I135677
F103.57022900763359
I4
tp187
aa(lp188
(I0
I1826
I1293
I146446
F113.26063418406805
I6
tp189
a(I1
I1830
I1290
I152354
F118.10387596899224
I5
tp190
a(I2
I1809
I1274
I155201
F121.82182103610675
I8
tp191
a(I3
I1848
I1330
I156207
F117.44887218045113
I4
tp192
a(I4
I1931
I1348
I168647
F125.10905044510386
I5
tp193
a(I5
I1815
I1277
I145059
F113.59357870007831
I4
tp194
a(I6
I1813
I1318
I158530
F120.28072837632777
I0
tp195
a(I7
I1891
I1326
I153969
F116.11538461538461
I4
tp196
a(I8
I1839
I1312
I165258
F125.95884146341463
I2
tp197
a(I9
I1868
I1285
I134061
F104.32762645914397
I5
tp198
aa(lp199
(I0
I1693
I1287
I168800
F131.15773115773115
I18
tp200
a(I1
I1659
I1312
I189553
F144.4763719512195
I48
tp201
a(I2
I1679
I1320
I191842
F145.3348484848485
I32
tp202
a(I3
I1835
I1326
I161622
F121.8868778280543
I11
tp203
a(I4
I1848
I1314
I156575
F119.15905631659056
I6
tp204
a(I5
I1720
I1300
I170856
F131.4276923076923
I15
tp205
a(I6
I1776
I1283
I164637
F128.32190179267343
I6
tp206
a(I7
I1774
I1297
I159917
F123.29760986892829
I6
tp207
a(I8
I1646
I1324
I186190
F140.62688821752266
I10
tp208
a(I9
I1712
I1297
I177815
F137.0971472629144
I10
tp209
aa(lp210
(I0
I1614
I1294
I194255
F150.11978361669242
I86
tp211
a(I1
I1555
I1316
I195739
F148.73784194528875
I169
tp212
a(I2
I1421
I1330
I216561
F162.82781954887218
I142
tp213
a(I3
I1495
I1324
I203705
F153.85574018126889
I164
tp214
a(I4
I1699
I1342
I182734
F136.16542473919523
I67
tp215
a(I5
I1795
I1358
I181367
F133.55449189985274
I44
tp216
a(I6
I1487
I1341
I209601
F156.3020134228188
I84
tp217
a(I7
I1610
I1323
I192432
F145.4512471655329
I70
tp218
a(I8
I1533
I1282
I187944
F146.6021840873635
I83
tp219
a(I9
I1613
I1322
I186248
F140.88350983358546
I102
tp220
aa(lp221
(I0
I1573
I1340
I203180
F151.62686567164178
I210
tp222
a(I1
I1544
I1340
I202116
F150.83283582089553
I168
tp223
a(I2
I1464
I1369
I227674
F166.30679327976625
I207
tp224
a(I3
I1339
I1296
I218135
F168.31404320987653
I250
tp225
a(I4
I1770
I1377
I191148
F138.8148148148148
I64
tp226
a(I5
I1479
I1345
I205493
F152.78289962825278
I197
tp227
a(I6
I1330
I1308
I223111
F170.57415902140673
I239
tp228
a(I7
I1524
I1343
I213216
F158.76098287416232
I157
tp229
a(I8
I1675
I1334
I190259
F142.62293853073464
I121
tp230
a(I9
I1527
I1337
I199149
F148.9521316379955
I203
tp231
aa.