(lp0
(dp1
S'flow'
p2
F0.1
sS'result'
p3
(lp4
(I0
I77
I88
I1863
F21.170454545454547
I1
tp5
a(I1
I71
I79
I1706
F21.59493670886076
I1
tp6
a(I2
I84
I85
I1845
F21.705882352941178
I1
tp7
a(I3
I83
I103
I2248
F21.825242718446603
I0
tp8
a(I4
I91
I113
I2435
F21.548672566371682
I1
tp9
a(I5
I94
I94
I2160
F22.97872340425532
I2
tp10
a(I6
I89
I85
I1842
F21.67058823529412
I0
tp11
a(I7
I70
I92
I1950
F21.195652173913043
I0
tp12
a(I8
I70
I88
I1862
F21.15909090909091
I1
tp13
a(I9
I93
I121
I2563
F21.181818181818183
I0
tp14
asa(dp15
g2
F0.2
sg3
(lp16
(I0
I155
I181
I3990
F22.044198895027623
I3
tp17
a(I1
I183
I186
I4154
F22.333333333333332
I2
tp18
a(I2
I169
I189
I4029
F21.317460317460316
I2
tp19
a(I3
I130
I152
I3306
F21.75
I2
tp20
a(I4
I188
I192
I4221
F21.984375
I1
tp21
a(I5
I176
I185
I4003
F21.63783783783784
I2
tp22
a(I6
I173
I191
I4144
F21.69633507853403
I1
tp23
a(I7
I200
I199
I4392
F22.07035175879397
I1
tp24
a(I8
I176
I193
I4227
F21.901554404145077
I1
tp25
a(I9
I202
I199
I4367
F21.944723618090453
I1
tp26
asa(dp27
g2
F0.4
sg3
(lp28
(I0
I440
I386
I8885
F23.018134715025905
I3
tp29
a(I1
I470
I399
I9443
F23.666666666666668
I2
tp30
a(I2
I501
I419
I9990
F23.842482100238662
I4
tp31
a(I3
I475
I401
I9454
F23.576059850374065
I4
tp32
a(I4
I468
I403
I9423
F23.382133995037222
I1
tp33
a(I5
I410
I376
I8757
F23.289893617021278
I6
tp34
a(I6
I468
I402
I9374
F23.318407960199004
I5
tp35
a(I7
I438
I379
I8922
F23.54089709762533
I3
tp36
a(I8
I490
I413
I9744
F23.593220338983052
I2
tp37
a(I9
I452
I393
I9187
F23.376590330788805
I5
tp38
asa(dp39
g2
F0.6000000000000001
sg3
(lp40
(I0
I775
I574
I13957
F24.31533101045296
I5
tp41
a(I1
I800
I550
I14061
F25.565454545454546
I1
tp42
a(I2
I845
I585
I14849
F25.38290598290598
I3
tp43
a(I3
I879
I595
I15118
F25.408403361344536
I2
tp44
a(I4
I748
I568
I13703
F24.125
I8
tp45
a(I5
I879
I603
I14970
F24.82587064676617
I6
tp46
a(I6
I867
I590
I14982
F25.39322033898305
I5
tp47
a(I7
I759
I561
I13868
F24.720142602495542
I3
tp48
a(I8
I840
I586
I14790
F25.238907849829353
I3
tp49
a(I9
I724
I532
I13235
F24.877819548872182
I2
tp50
asa(dp51
g2
F0.8
sg3
(lp52
(I0
I1486
I820
I23259
F28.364634146341462
I5
tp53
a(I1
I1325
I772
I20951
F27.13860103626943
I8
tp54
a(I2
I1335
I790
I21692
F27.458227848101266
I7
tp55
a(I3
I1292
I757
I20334
F26.86129458388375
I3
tp56
a(I4
I1281
I759
I20405
F26.884057971014492
I7
tp57
a(I5
I1193
I742
I19761
F26.632075471698112
I4
tp58
a(I6
I1450
I814
I22812
F28.024570024570025
I1
tp59
a(I7
I1397
I793
I21882
F27.593947036569986
I6
tp60
a(I8
I1277
I751
I20233
F26.941411451398135
I4
tp61
a(I9
I1415
I806
I22489
F27.90198511166253
I9
tp62
asa(dp63
g2
F1.0
sg3
(lp64
(I0
I1971
I931
I28342
F30.44253490870032
I12
tp65
a(I1
I2136
I981
I31140
F31.743119266055047
I8
tp66
a(I2
I2213
I1037
I34103
F32.88621022179363
I8
tp67
a(I3
I1962
I973
I30147
F30.98355601233299
I5
tp68
a(I4
I2031
I982
I30684
F31.24643584521385
I8
tp69
a(I5
I2126
I998
I32718
F32.78356713426854
I6
tp70
a(I6
I1957
I944
I28666
F30.366525423728813
I8
tp71
a(I7
I2054
I981
I30742
F31.337410805300713
I4
tp72
a(I8
I1916
I932
I28682
F30.77467811158798
I4
tp73
a(I9
I2048
I965
I30111
F31.203108808290157
I8
tp74
asa(dp75
g2
F1.2000000000000002
sg3
(lp76
(I0
I2587
I1170
I50909
F43.511965811965815
I12
tp77
a(I1
I2497
I1163
I60999
F52.449699054170246
I13
tp78
a(I2
I2506
I1125
I51805
F46.04888888888889
I5
tp79
a(I3
I2458
I1102
I39601
F35.93557168784029
I5
tp80
a(I4
I2427
I1129
I46900
F41.54118689105403
I8
tp81
a(I5
I2572
I1130
I49176
F43.51858407079646
I17
tp82
a(I6
I2447
I1106
I37889
F34.25768535262206
I16
tp83
a(I7
I2571
I1141
I47663
F41.77300613496933
I12
tp84
a(I8
I2362
I1101
I47296
F42.95731153496821
I13
tp85
a(I9
I2427
I1129
I45843
F40.60496014171834
I7
tp86
asa(dp87
g2
F1.4000000000000001
sg3
(lp88
(I0
I2479
I1214
I90049
F74.17545304777595
I16
tp89
a(I1
I2331
I1239
I123288
F99.50605326876513
I9
tp90
a(I2
I2570
I1222
I73779
F60.375613747954176
I10
tp91
a(I3
I2696
I1251
I94517
F75.55315747402078
I12
tp92
a(I4
I2587
I1253
I95583
F76.28332003192338
I10
tp93
a(I5
I2535
I1221
I84093
F68.87223587223588
I10
tp94
a(I6
I2535
I1219
I92179
F75.61853978671041
I17
tp95
a(I7
I2566
I1227
I88269
F71.93887530562347
I18
tp96
a(I8
I2617
I1215
I88021
F72.44526748971194
I16
tp97
a(I9
I2425
I1211
I93677
F77.355078447564
I8
tp98
asa(dp99
g2
F1.6
sg3
(lp100
(I0
I2410
I1312
I153174
F116.7484756097561
I10
tp101
a(I1
I2412
I1261
I140340
F111.29262490087233
I10
tp102
a(I2
I2407
I1254
I139084
F110.91228070175438
I10
tp103
a(I3
I2426
I1272
I131052
F103.02830188679245
I15
tp104
a(I4
I2212
I1288
I169024
F131.22981366459626
I18
tp105
a(I5
I2383
I1259
I130274
F103.47418586179508
I11
tp106
a(I6
I2324
I1273
I160524
F126.09897879025922
I11
tp107
a(I7
I2290
I1269
I146785
F115.66981875492513
I17
tp108
a(I8
I2293
I1303
I169089
F129.76899462778204
I13
tp109
a(I9
I2352
I1274
I154116
F120.9701726844584
I15
tp110
asa(dp111
g2
F1.8
sg3
(lp112
(I0
I2299
I1300
I172071
F132.3623076923077
I88
tp113
a(I1
I2030
I1275
I205267
F160.99372549019608
I135
tp114
a(I2
I2053
I1303
I205254
F157.5241749808135
I103
tp115
a(I3
I1916
I1309
I214581
F163.92742551566081
I157
tp116
a(I4
I2129
I1309
I192773
F147.2673796791444
I123
tp117
a(I5
I2151
I1316
I202102
F153.57294832826747
I124
tp118
a(I6
I1865
I1282
I221042
F172.41965678627145
I222
tp119
a(I7
I2066
I1310
I207911
F158.71068702290077
I96
tp120
a(I8
I2186
I1296
I192863
F148.81404320987653
I97
tp121
a(I9
I2245
I1314
I187397
F142.61567732115677
I45
tp122
asa(dp123
g2
F2.0
sg3
(lp124
(I0
I1809
I1296
I229965
F177.44212962962962
I281
tp125
a(I1
I1875
I1320
I238540
F180.71212121212122
I255
tp126
a(I2
I1962
I1334
I224917
F168.60344827586206
I217
tp127
a(I3
I1877
I1307
I229461
F175.56312165263964
I263
tp128
a(I4
I1821
I1303
I233520
F179.21719109746738
I362
tp129
a(I5
I1709
I1297
I250455
F193.10331534309947
I350
tp130
a(I6
I1845
I1313
I226745
F172.69230769230768
I297
tp131
a(I7
I1892
I1303
I231649
F177.78127398311588
I270
tp132
a(I8
I1861
I1309
I235045
F179.5607333842628
I287
tp133
a(I9
I2102
I1364
I215711
F158.1458944281525
I190
tp134
asa(dp135
g2
F2.2
sg3
(lp136
(I0
I1651
I1318
I252548
F191.6145675265554
I442
tp137
a(I1
I1958
I1383
I247236
F178.76789587852494
I402
tp138
a(I2
I1612
I1301
I250347
F192.42659492697925
I484
tp139
a(I3
I1723
I1319
I240898
F182.63684609552692
I405
tp140
a(I4
I1572
I1328
I261897
F197.21159638554218
I455
tp141
a(I5
I1841
I1354
I246036
F181.71048744460856
I399
tp142
a(I6
I1678
I1310
I258423
F197.26946564885498
I530
tp143
a(I7
I1625
I1332
I264613
F198.6584084084084
I424
tp144
a(I8
I1589
I1316
I256713
F195.0706686930091
I418
tp145
a(I9
I1741
I1329
I253548
F190.78103837471784
I419
tp146
asa(dp147
g2
F2.4000000000000004
sg3
(lp148
(I0
I1424
I1326
I276333
F208.39592760180994
I717
tp149
a(I1
I1501
I1327
I269739
F203.26978146194423
I644
tp150
a(I2
I1594
I1321
I260357
F197.0908402725208
I630
tp151
a(I3
I1428
I1305
I271550
F208.08429118773947
I585
tp152
a(I4
I1413
I1308
I270492
F206.7981651376147
I622
tp153
a(I5
I1550
I1338
I263272
F196.76532137518686
I591
tp154
a(I6
I1547
I1309
I261619
F199.86172650878532
I581
tp155
a(I7
I1600
I1354
I261588
F193.19645494830132
I601
tp156
a(I8
I1606
I1302
I257648
F197.8863287250384
I541
tp157
a(I9
I1431
I1303
I269830
F207.08365310821182
I730
tp158
asa(dp159
g2
F2.6
sg3
(lp160
(I0
I1451
I1341
I273115
F203.66517524235644
I741
tp161
a(I1
I1448
I1332
I278637
F209.18693693693695
I799
tp162
a(I2
I1512
I1313
I275198
F209.5948210205636
I841
tp163
a(I3
I1457
I1350
I272342
F201.73481481481483
I702
tp164
a(I4
I1497
I1353
I273277
F201.97856614929785
I732
tp165
a(I5
I1461
I1330
I268843
F202.1375939849624
I812
tp166
a(I6
I1408
I1337
I274112
F205.02019446522064
I825
tp167
a(I7
I1389
I1335
I286499
F214.6059925093633
I835
tp168
a(I8
I1225
I1296
I289399
F223.3016975308642
I780
tp169
a(I9
I1425
I1356
I279513
F206.13053097345133
I788
tp170
asa(dp171
g2
F2.8000000000000003
sg3
(lp172
(I0
I1415
I1336
I277328
F207.5808383233533
I1001
tp173
a(I1
I1418
I1335
I277463
F207.8374531835206
I993
tp174
a(I2
I1406
I1338
I277971
F207.75112107623318
I967
tp175
a(I3
I1300
I1308
I282800
F216.20795107033638
I1010
tp176
a(I4
I1299
I1323
I290885
F219.86772486772486
I1052
tp177
a(I5
I1352
I1349
I285192
F211.409933283914
I987
tp178
a(I6
I1272
I1348
I290876
F215.7833827893175
I1063
tp179
a(I7
I1249
I1321
I279643
F211.6903860711582
I1010
tp180
a(I8
I1275
I1339
I285299
F213.06870799103808
I956
tp181
a(I9
I1414
I1363
I286425
F210.1430667644901
I873
tp182
asa(dp183
g2
F3.0
sg3
(lp184
(I0
I1401
I1384
I285397
F206.21170520231215
I1093
tp185
a(I1
I1232
I1358
I291243
F214.46465390279823
I1155
tp186
a(I2
I1225
I1329
I286920
F215.89164785553046
I1147
tp187
a(I3
I1321
I1326
I288114
F217.28054298642533
I1151
tp188
a(I4
I1236
I1325
I293129
F221.22943396226415
I1088
tp189
a(I5
I1178
I1331
I292237
F219.56198347107437
I1153
tp190
a(I6
I1201
I1353
I299597
F221.43163340724317
I1219
tp191
a(I7
I1285
I1332
I290216
F217.87987987987987
I1151
tp192
a(I8
I1266
I1346
I295990
F219.9034175334324
I1270
tp193
a(I9
I1138
I1309
I293581
F224.27883880825058
I1164
tp194
asa.